
RoboArm.elf:     file format elf32-avr

Sections:
Idx Name          Size      VMA       LMA       File off  Algn
  0 .text         000013ac  00000000  00000000  00000094  2**1
                  CONTENTS, ALLOC, LOAD, READONLY, CODE
  1 .data         00000064  00802000  000013ac  00001440  2**0
                  CONTENTS, ALLOC, LOAD, DATA
  2 .bss          00000026  00802064  00802064  000014a4  2**0
                  ALLOC
  3 .comment      00000030  00000000  00000000  000014a4  2**0
                  CONTENTS, READONLY
  4 .note.gnu.avr.deviceinfo 00000040  00000000  00000000  000014d4  2**2
                  CONTENTS, READONLY
  5 .debug_aranges 00000328  00000000  00000000  00001514  2**0
                  CONTENTS, READONLY, DEBUGGING
  6 .debug_info   000094b1  00000000  00000000  0000183c  2**0
                  CONTENTS, READONLY, DEBUGGING
  7 .debug_abbrev 00004c6c  00000000  00000000  0000aced  2**0
                  CONTENTS, READONLY, DEBUGGING
  8 .debug_line   000023e6  00000000  00000000  0000f959  2**0
                  CONTENTS, READONLY, DEBUGGING
  9 .debug_frame  000009f4  00000000  00000000  00011d40  2**2
                  CONTENTS, READONLY, DEBUGGING
 10 .debug_str    00003ef1  00000000  00000000  00012734  2**0
                  CONTENTS, READONLY, DEBUGGING
 11 .debug_loc    00002d64  00000000  00000000  00016625  2**0
                  CONTENTS, READONLY, DEBUGGING
 12 .debug_ranges 00000278  00000000  00000000  00019389  2**0
                  CONTENTS, READONLY, DEBUGGING

Disassembly of section .text:

00000000 <__vectors>:
       0:	0c 94 04 01 	jmp	0x208	; 0x208 <__ctors_end>
       4:	0c 94 2a 01 	jmp	0x254	; 0x254 <__bad_interrupt>
       8:	0c 94 2a 01 	jmp	0x254	; 0x254 <__bad_interrupt>
       c:	0c 94 2a 01 	jmp	0x254	; 0x254 <__bad_interrupt>
      10:	0c 94 2a 01 	jmp	0x254	; 0x254 <__bad_interrupt>
      14:	0c 94 2a 01 	jmp	0x254	; 0x254 <__bad_interrupt>
      18:	0c 94 2a 01 	jmp	0x254	; 0x254 <__bad_interrupt>
      1c:	0c 94 2a 01 	jmp	0x254	; 0x254 <__bad_interrupt>
      20:	0c 94 2a 01 	jmp	0x254	; 0x254 <__bad_interrupt>
      24:	0c 94 2a 01 	jmp	0x254	; 0x254 <__bad_interrupt>
      28:	0c 94 2a 01 	jmp	0x254	; 0x254 <__bad_interrupt>
      2c:	0c 94 2a 01 	jmp	0x254	; 0x254 <__bad_interrupt>
      30:	0c 94 2a 01 	jmp	0x254	; 0x254 <__bad_interrupt>
      34:	0c 94 2a 01 	jmp	0x254	; 0x254 <__bad_interrupt>
      38:	0c 94 2a 01 	jmp	0x254	; 0x254 <__bad_interrupt>
      3c:	0c 94 2a 01 	jmp	0x254	; 0x254 <__bad_interrupt>
      40:	0c 94 2a 01 	jmp	0x254	; 0x254 <__bad_interrupt>
      44:	0c 94 2a 01 	jmp	0x254	; 0x254 <__bad_interrupt>
      48:	0c 94 2a 01 	jmp	0x254	; 0x254 <__bad_interrupt>
      4c:	0c 94 2a 01 	jmp	0x254	; 0x254 <__bad_interrupt>
      50:	0c 94 2a 01 	jmp	0x254	; 0x254 <__bad_interrupt>
      54:	0c 94 2a 01 	jmp	0x254	; 0x254 <__bad_interrupt>
      58:	0c 94 2a 01 	jmp	0x254	; 0x254 <__bad_interrupt>
      5c:	0c 94 2a 01 	jmp	0x254	; 0x254 <__bad_interrupt>
      60:	0c 94 2a 01 	jmp	0x254	; 0x254 <__bad_interrupt>
      64:	0c 94 2a 01 	jmp	0x254	; 0x254 <__bad_interrupt>
      68:	0c 94 2a 01 	jmp	0x254	; 0x254 <__bad_interrupt>
      6c:	0c 94 2a 01 	jmp	0x254	; 0x254 <__bad_interrupt>
      70:	0c 94 2a 01 	jmp	0x254	; 0x254 <__bad_interrupt>
      74:	0c 94 2a 01 	jmp	0x254	; 0x254 <__bad_interrupt>
      78:	0c 94 2a 01 	jmp	0x254	; 0x254 <__bad_interrupt>
      7c:	0c 94 2a 01 	jmp	0x254	; 0x254 <__bad_interrupt>
      80:	0c 94 2a 01 	jmp	0x254	; 0x254 <__bad_interrupt>
      84:	0c 94 2a 01 	jmp	0x254	; 0x254 <__bad_interrupt>
      88:	0c 94 2a 01 	jmp	0x254	; 0x254 <__bad_interrupt>
      8c:	0c 94 2a 01 	jmp	0x254	; 0x254 <__bad_interrupt>
      90:	0c 94 2a 01 	jmp	0x254	; 0x254 <__bad_interrupt>
      94:	0c 94 2a 01 	jmp	0x254	; 0x254 <__bad_interrupt>
      98:	0c 94 2a 01 	jmp	0x254	; 0x254 <__bad_interrupt>
      9c:	0c 94 2a 01 	jmp	0x254	; 0x254 <__bad_interrupt>
      a0:	0c 94 2a 01 	jmp	0x254	; 0x254 <__bad_interrupt>
      a4:	0c 94 2a 01 	jmp	0x254	; 0x254 <__bad_interrupt>
      a8:	0c 94 2a 01 	jmp	0x254	; 0x254 <__bad_interrupt>
      ac:	0c 94 2a 01 	jmp	0x254	; 0x254 <__bad_interrupt>
      b0:	0c 94 2a 01 	jmp	0x254	; 0x254 <__bad_interrupt>
      b4:	0c 94 2a 01 	jmp	0x254	; 0x254 <__bad_interrupt>
      b8:	0c 94 2a 01 	jmp	0x254	; 0x254 <__bad_interrupt>
      bc:	0c 94 2a 01 	jmp	0x254	; 0x254 <__bad_interrupt>
      c0:	0c 94 2a 01 	jmp	0x254	; 0x254 <__bad_interrupt>
      c4:	0c 94 2a 01 	jmp	0x254	; 0x254 <__bad_interrupt>
      c8:	0c 94 2a 01 	jmp	0x254	; 0x254 <__bad_interrupt>
      cc:	0c 94 2a 01 	jmp	0x254	; 0x254 <__bad_interrupt>
      d0:	0c 94 2a 01 	jmp	0x254	; 0x254 <__bad_interrupt>
      d4:	0c 94 2a 01 	jmp	0x254	; 0x254 <__bad_interrupt>
      d8:	0c 94 2a 01 	jmp	0x254	; 0x254 <__bad_interrupt>
      dc:	0c 94 2a 01 	jmp	0x254	; 0x254 <__bad_interrupt>
      e0:	0c 94 2a 01 	jmp	0x254	; 0x254 <__bad_interrupt>
      e4:	0c 94 2a 01 	jmp	0x254	; 0x254 <__bad_interrupt>
      e8:	0c 94 2a 01 	jmp	0x254	; 0x254 <__bad_interrupt>
      ec:	0c 94 2a 01 	jmp	0x254	; 0x254 <__bad_interrupt>
      f0:	0c 94 2a 01 	jmp	0x254	; 0x254 <__bad_interrupt>
      f4:	0c 94 2a 01 	jmp	0x254	; 0x254 <__bad_interrupt>
      f8:	0c 94 2a 01 	jmp	0x254	; 0x254 <__bad_interrupt>
      fc:	0c 94 2a 01 	jmp	0x254	; 0x254 <__bad_interrupt>
     100:	0c 94 2a 01 	jmp	0x254	; 0x254 <__bad_interrupt>
     104:	0c 94 2a 01 	jmp	0x254	; 0x254 <__bad_interrupt>
     108:	0c 94 2a 01 	jmp	0x254	; 0x254 <__bad_interrupt>
     10c:	0c 94 2a 01 	jmp	0x254	; 0x254 <__bad_interrupt>
     110:	0c 94 2a 01 	jmp	0x254	; 0x254 <__bad_interrupt>
     114:	0c 94 2a 01 	jmp	0x254	; 0x254 <__bad_interrupt>
     118:	0c 94 2a 01 	jmp	0x254	; 0x254 <__bad_interrupt>
     11c:	0c 94 2a 01 	jmp	0x254	; 0x254 <__bad_interrupt>
     120:	0c 94 2a 01 	jmp	0x254	; 0x254 <__bad_interrupt>
     124:	0c 94 2a 01 	jmp	0x254	; 0x254 <__bad_interrupt>
     128:	0c 94 2a 01 	jmp	0x254	; 0x254 <__bad_interrupt>
     12c:	0c 94 2a 01 	jmp	0x254	; 0x254 <__bad_interrupt>
     130:	0c 94 2a 01 	jmp	0x254	; 0x254 <__bad_interrupt>
     134:	0c 94 2a 01 	jmp	0x254	; 0x254 <__bad_interrupt>
     138:	0c 94 2a 01 	jmp	0x254	; 0x254 <__bad_interrupt>
     13c:	0c 94 2a 01 	jmp	0x254	; 0x254 <__bad_interrupt>
     140:	0c 94 2a 01 	jmp	0x254	; 0x254 <__bad_interrupt>
     144:	0c 94 2a 01 	jmp	0x254	; 0x254 <__bad_interrupt>
     148:	0c 94 2a 01 	jmp	0x254	; 0x254 <__bad_interrupt>
     14c:	0c 94 2a 01 	jmp	0x254	; 0x254 <__bad_interrupt>
     150:	0c 94 2a 01 	jmp	0x254	; 0x254 <__bad_interrupt>
     154:	0c 94 2a 01 	jmp	0x254	; 0x254 <__bad_interrupt>
     158:	0c 94 2a 01 	jmp	0x254	; 0x254 <__bad_interrupt>
     15c:	0c 94 2a 01 	jmp	0x254	; 0x254 <__bad_interrupt>
     160:	0c 94 2e 06 	jmp	0xc5c	; 0xc5c <__vector_88>
     164:	0c 94 ea 05 	jmp	0xbd4	; 0xbd4 <__vector_89>
     168:	0c 94 2a 01 	jmp	0x254	; 0x254 <__bad_interrupt>
     16c:	0c 94 2a 01 	jmp	0x254	; 0x254 <__bad_interrupt>
     170:	0c 94 2a 01 	jmp	0x254	; 0x254 <__bad_interrupt>
     174:	0c 94 2a 01 	jmp	0x254	; 0x254 <__bad_interrupt>
     178:	0c 94 2a 01 	jmp	0x254	; 0x254 <__bad_interrupt>
     17c:	0c 94 2a 01 	jmp	0x254	; 0x254 <__bad_interrupt>
     180:	0c 94 2a 01 	jmp	0x254	; 0x254 <__bad_interrupt>
     184:	0c 94 2a 01 	jmp	0x254	; 0x254 <__bad_interrupt>
     188:	0c 94 2a 01 	jmp	0x254	; 0x254 <__bad_interrupt>
     18c:	0c 94 2a 01 	jmp	0x254	; 0x254 <__bad_interrupt>
     190:	0c 94 2a 01 	jmp	0x254	; 0x254 <__bad_interrupt>
     194:	0c 94 2a 01 	jmp	0x254	; 0x254 <__bad_interrupt>
     198:	0c 94 2a 01 	jmp	0x254	; 0x254 <__bad_interrupt>
     19c:	0c 94 2a 01 	jmp	0x254	; 0x254 <__bad_interrupt>
     1a0:	0c 94 2a 01 	jmp	0x254	; 0x254 <__bad_interrupt>
     1a4:	0c 94 2a 01 	jmp	0x254	; 0x254 <__bad_interrupt>
     1a8:	0c 94 2a 01 	jmp	0x254	; 0x254 <__bad_interrupt>
     1ac:	0c 94 2a 01 	jmp	0x254	; 0x254 <__bad_interrupt>
     1b0:	0c 94 fe 06 	jmp	0xdfc	; 0xdfc <__vector_108>
     1b4:	0c 94 2a 01 	jmp	0x254	; 0x254 <__bad_interrupt>
     1b8:	0c 94 2a 01 	jmp	0x254	; 0x254 <__bad_interrupt>
     1bc:	0c 94 2a 01 	jmp	0x254	; 0x254 <__bad_interrupt>
     1c0:	0c 94 2a 01 	jmp	0x254	; 0x254 <__bad_interrupt>
     1c4:	0c 94 2a 01 	jmp	0x254	; 0x254 <__bad_interrupt>
     1c8:	0c 94 2a 01 	jmp	0x254	; 0x254 <__bad_interrupt>
     1cc:	0c 94 2a 01 	jmp	0x254	; 0x254 <__bad_interrupt>
     1d0:	0c 94 2a 01 	jmp	0x254	; 0x254 <__bad_interrupt>
     1d4:	0c 94 2a 01 	jmp	0x254	; 0x254 <__bad_interrupt>
     1d8:	0c 94 2a 01 	jmp	0x254	; 0x254 <__bad_interrupt>
     1dc:	0c 94 2a 01 	jmp	0x254	; 0x254 <__bad_interrupt>
     1e0:	0c 94 2a 01 	jmp	0x254	; 0x254 <__bad_interrupt>
     1e4:	0c 94 2a 01 	jmp	0x254	; 0x254 <__bad_interrupt>
     1e8:	0c 94 2a 01 	jmp	0x254	; 0x254 <__bad_interrupt>
     1ec:	0c 94 2a 01 	jmp	0x254	; 0x254 <__bad_interrupt>
     1f0:	0c 94 2a 01 	jmp	0x254	; 0x254 <__bad_interrupt>
     1f4:	0c 94 2a 01 	jmp	0x254	; 0x254 <__bad_interrupt>
     1f8:	0c 94 2a 01 	jmp	0x254	; 0x254 <__bad_interrupt>

000001fc <__trampolines_start>:
     1fc:	0c 94 a2 03 	jmp	0x744	; 0x744 <HC05_SendStatus>
     200:	0c 94 fb 03 	jmp	0x7f6	; 0x7f6 <HC05_Read>
     204:	0c 94 9f 03 	jmp	0x73e	; 0x73e <HC05_SendString>

00000208 <__ctors_end>:
     208:	11 24       	eor	r1, r1
     20a:	1f be       	out	0x3f, r1	; 63
     20c:	cf ef       	ldi	r28, 0xFF	; 255
     20e:	cd bf       	out	0x3d, r28	; 61
     210:	df e3       	ldi	r29, 0x3F	; 63
     212:	de bf       	out	0x3e, r29	; 62
     214:	00 e0       	ldi	r16, 0x00	; 0
     216:	0c bf       	out	0x3c, r16	; 60
     218:	18 be       	out	0x38, r1	; 56
     21a:	19 be       	out	0x39, r1	; 57
     21c:	1a be       	out	0x3a, r1	; 58
     21e:	1b be       	out	0x3b, r1	; 59

00000220 <__do_copy_data>:
     220:	10 e2       	ldi	r17, 0x20	; 32
     222:	a0 e0       	ldi	r26, 0x00	; 0
     224:	b0 e2       	ldi	r27, 0x20	; 32
     226:	ec ea       	ldi	r30, 0xAC	; 172
     228:	f3 e1       	ldi	r31, 0x13	; 19
     22a:	00 e0       	ldi	r16, 0x00	; 0
     22c:	0b bf       	out	0x3b, r16	; 59
     22e:	02 c0       	rjmp	.+4      	; 0x234 <__do_copy_data+0x14>
     230:	07 90       	elpm	r0, Z+
     232:	0d 92       	st	X+, r0
     234:	a4 36       	cpi	r26, 0x64	; 100
     236:	b1 07       	cpc	r27, r17
     238:	d9 f7       	brne	.-10     	; 0x230 <__do_copy_data+0x10>
     23a:	1b be       	out	0x3b, r1	; 59

0000023c <__do_clear_bss>:
     23c:	20 e2       	ldi	r18, 0x20	; 32
     23e:	a4 e6       	ldi	r26, 0x64	; 100
     240:	b0 e2       	ldi	r27, 0x20	; 32
     242:	01 c0       	rjmp	.+2      	; 0x246 <.do_clear_bss_start>

00000244 <.do_clear_bss_loop>:
     244:	1d 92       	st	X+, r1

00000246 <.do_clear_bss_start>:
     246:	aa 38       	cpi	r26, 0x8A	; 138
     248:	b2 07       	cpc	r27, r18
     24a:	e1 f7       	brne	.-8      	; 0x244 <.do_clear_bss_loop>
     24c:	0e 94 3b 08 	call	0x1076	; 0x1076 <main>
     250:	0c 94 d4 09 	jmp	0x13a8	; 0x13a8 <_exit>

00000254 <__bad_interrupt>:
     254:	0c 94 00 00 	jmp	0	; 0x0 <__vectors>

00000258 <Data_CreateMove>:

void Data_DeleteList(list_t *list)
{
	if (list != NULL)																/* jeœli wskaŸnik nie jest pusty, to:									*/
	{
		free(list);																	/* zwolnij wskazywan¹ przez niego pamiêæ								*/
     258:	0f 93       	push	r16
     25a:	1f 93       	push	r17
     25c:	cf 93       	push	r28
     25e:	df 93       	push	r29
     260:	08 2f       	mov	r16, r24
     262:	16 2f       	mov	r17, r22
     264:	d4 2f       	mov	r29, r20
     266:	c2 2f       	mov	r28, r18
     268:	84 e0       	ldi	r24, 0x04	; 4
     26a:	90 e0       	ldi	r25, 0x00	; 0
     26c:	0e 94 78 08 	call	0x10f0	; 0x10f0 <malloc>
     270:	fc 01       	movw	r30, r24
     272:	00 83       	st	Z, r16
     274:	11 83       	std	Z+1, r17	; 0x01
     276:	d2 83       	std	Z+2, r29	; 0x02
     278:	83 81       	ldd	r24, Z+3	; 0x03
     27a:	c0 fb       	bst	r28, 0
     27c:	80 f9       	bld	r24, 0
     27e:	83 83       	std	Z+3, r24	; 0x03
     280:	cf 01       	movw	r24, r30
     282:	df 91       	pop	r29
     284:	cf 91       	pop	r28
     286:	1f 91       	pop	r17
     288:	0f 91       	pop	r16
     28a:	08 95       	ret

0000028c <Data_CreateListElement>:
     28c:	0f 93       	push	r16
     28e:	1f 93       	push	r17
     290:	cf 93       	push	r28
     292:	df 93       	push	r29
     294:	8c 01       	movw	r16, r24
     296:	eb 01       	movw	r28, r22
     298:	84 e0       	ldi	r24, 0x04	; 4
     29a:	90 e0       	ldi	r25, 0x00	; 0
     29c:	0e 94 78 08 	call	0x10f0	; 0x10f0 <malloc>
     2a0:	fc 01       	movw	r30, r24
     2a2:	02 83       	std	Z+2, r16	; 0x02
     2a4:	13 83       	std	Z+3, r17	; 0x03
     2a6:	c0 83       	st	Z, r28
     2a8:	d1 83       	std	Z+1, r29	; 0x01
     2aa:	df 91       	pop	r29
     2ac:	cf 91       	pop	r28
     2ae:	1f 91       	pop	r17
     2b0:	0f 91       	pop	r16
     2b2:	08 95       	ret

000002b4 <Data_CreateList>:
     2b4:	87 e0       	ldi	r24, 0x07	; 7
     2b6:	90 e0       	ldi	r25, 0x00	; 0
     2b8:	0e 94 78 08 	call	0x10f0	; 0x10f0 <malloc>
     2bc:	fc 01       	movw	r30, r24
     2be:	16 82       	std	Z+6, r1	; 0x06
     2c0:	14 82       	std	Z+4, r1	; 0x04
     2c2:	15 82       	std	Z+5, r1	; 0x05
     2c4:	10 82       	st	Z, r1
     2c6:	11 82       	std	Z+1, r1	; 0x01
     2c8:	12 82       	std	Z+2, r1	; 0x02
     2ca:	13 82       	std	Z+3, r1	; 0x03
     2cc:	08 95       	ret

000002ce <Data_InsertElementToList>:
     2ce:	fc 01       	movw	r30, r24
     2d0:	82 81       	ldd	r24, Z+2	; 0x02
     2d2:	93 81       	ldd	r25, Z+3	; 0x03
     2d4:	89 2b       	or	r24, r25
     2d6:	51 f4       	brne	.+20     	; 0x2ec <Data_InsertElementToList+0x1e>
     2d8:	62 83       	std	Z+2, r22	; 0x02
     2da:	73 83       	std	Z+3, r23	; 0x03
     2dc:	db 01       	movw	r26, r22
     2de:	1d 92       	st	X+, r1
     2e0:	1c 92       	st	X, r1
     2e2:	82 81       	ldd	r24, Z+2	; 0x02
     2e4:	93 81       	ldd	r25, Z+3	; 0x03
     2e6:	80 83       	st	Z, r24
     2e8:	91 83       	std	Z+1, r25	; 0x01
     2ea:	07 c0       	rjmp	.+14     	; 0x2fa <Data_InsertElementToList+0x2c>
     2ec:	80 81       	ld	r24, Z
     2ee:	91 81       	ldd	r25, Z+1	; 0x01
     2f0:	db 01       	movw	r26, r22
     2f2:	8d 93       	st	X+, r24
     2f4:	9c 93       	st	X, r25
     2f6:	60 83       	st	Z, r22
     2f8:	71 83       	std	Z+1, r23	; 0x01
     2fa:	80 81       	ld	r24, Z
     2fc:	91 81       	ldd	r25, Z+1	; 0x01
     2fe:	84 83       	std	Z+4, r24	; 0x04
     300:	95 83       	std	Z+5, r25	; 0x05
     302:	86 81       	ldd	r24, Z+6	; 0x06
     304:	8f 5f       	subi	r24, 0xFF	; 255
     306:	86 83       	std	Z+6, r24	; 0x06
     308:	08 95       	ret

0000030a <Data_GetTaskFromList>:
     30a:	fc 01       	movw	r30, r24
     30c:	a4 81       	ldd	r26, Z+4	; 0x04
     30e:	b5 81       	ldd	r27, Z+5	; 0x05
     310:	12 96       	adiw	r26, 0x02	; 2
     312:	8d 91       	ld	r24, X+
     314:	9c 91       	ld	r25, X
     316:	13 97       	sbiw	r26, 0x03	; 3
     318:	2d 91       	ld	r18, X+
     31a:	3c 91       	ld	r19, X
     31c:	24 83       	std	Z+4, r18	; 0x04
     31e:	35 83       	std	Z+5, r19	; 0x05
     320:	08 95       	ret

00000322 <Data_GetMoveFromList>:
     322:	fc 01       	movw	r30, r24
     324:	a4 81       	ldd	r26, Z+4	; 0x04
     326:	b5 81       	ldd	r27, Z+5	; 0x05
     328:	12 96       	adiw	r26, 0x02	; 2
     32a:	8d 91       	ld	r24, X+
     32c:	9c 91       	ld	r25, X
     32e:	13 97       	sbiw	r26, 0x03	; 3
     330:	2d 91       	ld	r18, X+
     332:	3c 91       	ld	r19, X
     334:	24 83       	std	Z+4, r18	; 0x04
     336:	35 83       	std	Z+5, r19	; 0x05
     338:	08 95       	ret

0000033a <Data_DeleteElementFromList>:
     33a:	0f 93       	push	r16
     33c:	1f 93       	push	r17
     33e:	cf 93       	push	r28
     340:	df 93       	push	r29
     342:	dc 01       	movw	r26, r24
     344:	ed 91       	ld	r30, X+
     346:	fc 91       	ld	r31, X
     348:	30 97       	sbiw	r30, 0x00	; 0
     34a:	d1 f0       	breq	.+52     	; 0x380 <Data_DeleteElementFromList+0x46>
     34c:	ec 01       	movw	r28, r24
     34e:	00 81       	ld	r16, Z
     350:	11 81       	ldd	r17, Z+1	; 0x01
     352:	82 81       	ldd	r24, Z+2	; 0x02
     354:	93 81       	ldd	r25, Z+3	; 0x03
     356:	0e 94 10 09 	call	0x1220	; 0x1220 <free>
     35a:	e8 81       	ld	r30, Y
     35c:	f9 81       	ldd	r31, Y+1	; 0x01
     35e:	10 82       	st	Z, r1
     360:	11 82       	std	Z+1, r1	; 0x01
     362:	e8 81       	ld	r30, Y
     364:	f9 81       	ldd	r31, Y+1	; 0x01
     366:	12 82       	std	Z+2, r1	; 0x02
     368:	13 82       	std	Z+3, r1	; 0x03
     36a:	88 81       	ld	r24, Y
     36c:	99 81       	ldd	r25, Y+1	; 0x01
     36e:	0e 94 10 09 	call	0x1220	; 0x1220 <free>
     372:	08 83       	st	Y, r16
     374:	19 83       	std	Y+1, r17	; 0x01
     376:	0c 83       	std	Y+4, r16	; 0x04
     378:	1d 83       	std	Y+5, r17	; 0x05
     37a:	8e 81       	ldd	r24, Y+6	; 0x06
     37c:	81 50       	subi	r24, 0x01	; 1
     37e:	8e 83       	std	Y+6, r24	; 0x06
     380:	df 91       	pop	r29
     382:	cf 91       	pop	r28
     384:	1f 91       	pop	r17
     386:	0f 91       	pop	r16
     388:	08 95       	ret

0000038a <Data_ClearList>:
     38a:	cf 93       	push	r28
     38c:	df 93       	push	r29
     38e:	ec 01       	movw	r28, r24
     390:	03 c0       	rjmp	.+6      	; 0x398 <Data_ClearList+0xe>
     392:	ce 01       	movw	r24, r28
     394:	0e 94 9d 01 	call	0x33a	; 0x33a <Data_DeleteElementFromList>
     398:	88 81       	ld	r24, Y
     39a:	99 81       	ldd	r25, Y+1	; 0x01
     39c:	89 2b       	or	r24, r25
     39e:	c9 f7       	brne	.-14     	; 0x392 <Data_ClearList+0x8>
     3a0:	18 82       	st	Y, r1
     3a2:	19 82       	std	Y+1, r1	; 0x01
     3a4:	1c 82       	std	Y+4, r1	; 0x04
     3a6:	1d 82       	std	Y+5, r1	; 0x05
     3a8:	1a 82       	std	Y+2, r1	; 0x02
     3aa:	1b 82       	std	Y+3, r1	; 0x03
     3ac:	1e 82       	std	Y+6, r1	; 0x06
     3ae:	df 91       	pop	r29
     3b0:	cf 91       	pop	r28
     3b2:	08 95       	ret

000003b4 <Data_InsertMoveToJob>:
	}
}

void Data_InsertMoveToJob(list_t *job, frame_t *frame)
{
     3b4:	ef 92       	push	r14
     3b6:	ff 92       	push	r15
     3b8:	0f 93       	push	r16
     3ba:	1f 93       	push	r17
     3bc:	cf 93       	push	r28
     3be:	df 93       	push	r29
     3c0:	8c 01       	movw	r16, r24
     3c2:	eb 01       	movw	r28, r22
	/* funkcja tworzy listê zagnie¿d¿on¹ w liœcie job */
	Data_InsertElementToList(job, Data_CreateListElement(Data_CreateList(), job->Head));
     3c4:	dc 01       	movw	r26, r24
     3c6:	ed 90       	ld	r14, X+
     3c8:	fc 90       	ld	r15, X
     3ca:	0e 94 5a 01 	call	0x2b4	; 0x2b4 <Data_CreateList>
     3ce:	b7 01       	movw	r22, r14
     3d0:	0e 94 46 01 	call	0x28c	; 0x28c <Data_CreateListElement>
     3d4:	bc 01       	movw	r22, r24
     3d6:	c8 01       	movw	r24, r16
     3d8:	0e 94 67 01 	call	0x2ce	; 0x2ce <Data_InsertElementToList>
	
	/* funkcja umieszcza w zagnie¿d¿onej liœcie dane ruchu osi */
	Data_InsertElementToList(job->Head->Data, Data_CreateListElement(Data_CreateMove(*frame->Data1, atoi(frame->Data2), atoi(frame->Data3), atoi(frame->Data4)), NULL));
     3dc:	8a 85       	ldd	r24, Y+10	; 0x0a
     3de:	9b 85       	ldd	r25, Y+11	; 0x0b
     3e0:	0e 94 99 09 	call	0x1332	; 0x1332 <atoi>
     3e4:	e8 2e       	mov	r14, r24
     3e6:	88 85       	ldd	r24, Y+8	; 0x08
     3e8:	99 85       	ldd	r25, Y+9	; 0x09
     3ea:	0e 94 99 09 	call	0x1332	; 0x1332 <atoi>
     3ee:	f8 2e       	mov	r15, r24
     3f0:	8e 81       	ldd	r24, Y+6	; 0x06
     3f2:	9f 81       	ldd	r25, Y+7	; 0x07
     3f4:	0e 94 99 09 	call	0x1332	; 0x1332 <atoi>
     3f8:	ec 81       	ldd	r30, Y+4	; 0x04
     3fa:	fd 81       	ldd	r31, Y+5	; 0x05
     3fc:	2e 2d       	mov	r18, r14
     3fe:	4f 2d       	mov	r20, r15
     400:	68 2f       	mov	r22, r24
     402:	80 81       	ld	r24, Z
     404:	0e 94 2c 01 	call	0x258	; 0x258 <Data_CreateMove>
     408:	60 e0       	ldi	r22, 0x00	; 0
     40a:	70 e0       	ldi	r23, 0x00	; 0
     40c:	0e 94 46 01 	call	0x28c	; 0x28c <Data_CreateListElement>
     410:	d8 01       	movw	r26, r16
     412:	ed 91       	ld	r30, X+
     414:	fc 91       	ld	r31, X
     416:	bc 01       	movw	r22, r24
     418:	82 81       	ldd	r24, Z+2	; 0x02
     41a:	93 81       	ldd	r25, Z+3	; 0x03
     41c:	0e 94 67 01 	call	0x2ce	; 0x2ce <Data_InsertElementToList>
}
     420:	df 91       	pop	r29
     422:	cf 91       	pop	r28
     424:	1f 91       	pop	r17
     426:	0f 91       	pop	r16
     428:	ff 90       	pop	r15
     42a:	ef 90       	pop	r14
     42c:	08 95       	ret

0000042e <Data_InsertTaskToJob>:

void Data_InsertTaskToJob(list_t *job, frame_t *frame, uint8_t islastmove)
{
     42e:	bf 92       	push	r11
     430:	cf 92       	push	r12
     432:	df 92       	push	r13
     434:	ef 92       	push	r14
     436:	ff 92       	push	r15
     438:	0f 93       	push	r16
     43a:	1f 93       	push	r17
     43c:	cf 93       	push	r28
     43e:	df 93       	push	r29
     440:	7c 01       	movw	r14, r24
     442:	eb 01       	movw	r28, r22
     444:	b4 2e       	mov	r11, r20
	static uint8_t NeedNewList = 1;
	list_t *ptrList = job->Head->Data;
     446:	dc 01       	movw	r26, r24
     448:	cd 90       	ld	r12, X+
     44a:	dc 90       	ld	r13, X
     44c:	f6 01       	movw	r30, r12
     44e:	02 81       	ldd	r16, Z+2	; 0x02
     450:	13 81       	ldd	r17, Z+3	; 0x03
	
	if (NeedNewList)
     452:	80 91 06 20 	lds	r24, 0x2006	; 0x802006 <NeedNewList.4091>
     456:	88 23       	and	r24, r24
     458:	81 f0       	breq	.+32     	; 0x47a <Data_InsertTaskToJob+0x4c>
	{
		/* funkcja tworzy listê zagnie¿d¿on¹ w liœcie job */
		Data_InsertElementToList(job, Data_CreateListElement(Data_CreateList(), job->Head));
     45a:	0e 94 5a 01 	call	0x2b4	; 0x2b4 <Data_CreateList>
     45e:	b6 01       	movw	r22, r12
     460:	0e 94 46 01 	call	0x28c	; 0x28c <Data_CreateListElement>
     464:	bc 01       	movw	r22, r24
     466:	c7 01       	movw	r24, r14
     468:	0e 94 67 01 	call	0x2ce	; 0x2ce <Data_InsertElementToList>
		
		/* pobranie wskaŸnika na listê zagnie¿d¿on¹ */
		ptrList = job->Head->Data;
     46c:	d7 01       	movw	r26, r14
     46e:	ed 91       	ld	r30, X+
     470:	fc 91       	ld	r31, X
     472:	02 81       	ldd	r16, Z+2	; 0x02
     474:	13 81       	ldd	r17, Z+3	; 0x03
		
		/* nowa lista nie potrzebna (bo w³aœnie zosta³a utworzona */
		NeedNewList = 0;
     476:	10 92 06 20 	sts	0x2006, r1	; 0x802006 <NeedNewList.4091>
	}
	
	/* funkcja umieszcza w zagnie¿d¿onej liœcie dane ruchu osi */
	Data_InsertElementToList(ptrList, Data_CreateListElement(Data_CreateMove(*frame->Data1, atoi(frame->Data2), atoi(frame->Data3), atoi(frame->Data4)), ptrList->Head));
     47a:	f8 01       	movw	r30, r16
     47c:	e0 80       	ld	r14, Z
     47e:	f1 80       	ldd	r15, Z+1	; 0x01
     480:	8a 85       	ldd	r24, Y+10	; 0x0a
     482:	9b 85       	ldd	r25, Y+11	; 0x0b
     484:	0e 94 99 09 	call	0x1332	; 0x1332 <atoi>
     488:	c8 2e       	mov	r12, r24
     48a:	88 85       	ldd	r24, Y+8	; 0x08
     48c:	99 85       	ldd	r25, Y+9	; 0x09
     48e:	0e 94 99 09 	call	0x1332	; 0x1332 <atoi>
     492:	d8 2e       	mov	r13, r24
     494:	8e 81       	ldd	r24, Y+6	; 0x06
     496:	9f 81       	ldd	r25, Y+7	; 0x07
     498:	0e 94 99 09 	call	0x1332	; 0x1332 <atoi>
     49c:	ec 81       	ldd	r30, Y+4	; 0x04
     49e:	fd 81       	ldd	r31, Y+5	; 0x05
     4a0:	2c 2d       	mov	r18, r12
     4a2:	4d 2d       	mov	r20, r13
     4a4:	68 2f       	mov	r22, r24
     4a6:	80 81       	ld	r24, Z
     4a8:	0e 94 2c 01 	call	0x258	; 0x258 <Data_CreateMove>
     4ac:	b7 01       	movw	r22, r14
     4ae:	0e 94 46 01 	call	0x28c	; 0x28c <Data_CreateListElement>
     4b2:	bc 01       	movw	r22, r24
     4b4:	c8 01       	movw	r24, r16
     4b6:	0e 94 67 01 	call	0x2ce	; 0x2ce <Data_InsertElementToList>
	
	if (islastmove)
     4ba:	bb 20       	and	r11, r11
     4bc:	19 f0       	breq	.+6      	; 0x4c4 <Data_InsertTaskToJob+0x96>
	{
		/* jeœli wstawiony do listy zosta³ ostatni ruch, to ustaw informacjê ¿e potrzebna jest nowa lista */
		NeedNewList = 1;
     4be:	81 e0       	ldi	r24, 0x01	; 1
     4c0:	80 93 06 20 	sts	0x2006, r24	; 0x802006 <NeedNewList.4091>
	}

}
     4c4:	df 91       	pop	r29
     4c6:	cf 91       	pop	r28
     4c8:	1f 91       	pop	r17
     4ca:	0f 91       	pop	r16
     4cc:	ff 90       	pop	r15
     4ce:	ef 90       	pop	r14
     4d0:	df 90       	pop	r13
     4d2:	cf 90       	pop	r12
     4d4:	bf 90       	pop	r11
     4d6:	08 95       	ret

000004d8 <Data_ClearJob>:

void Data_ClearJob(void)
{
	Job->Current = Job->Head;										/* ustawienie wskaŸnika aktualnego elementu na pocz¹tek listy							*/
     4d8:	e0 91 70 20 	lds	r30, 0x2070	; 0x802070 <Job>
     4dc:	f0 91 71 20 	lds	r31, 0x2071	; 0x802071 <Job+0x1>
     4e0:	80 81       	ld	r24, Z
     4e2:	91 81       	ldd	r25, Z+1	; 0x01
     4e4:	84 83       	std	Z+4, r24	; 0x04
     4e6:	95 83       	std	Z+5, r25	; 0x05
	while(Job->Current)												/* do czasu gdy wskaŸnik na bie¿¹cy element nie wskazuje null, wykonuj:					*/
     4e8:	0e c0       	rjmp	.+28     	; 0x506 <Data_ClearJob+0x2e>
	{
		Data_ClearList(Job->Current->Data);							/* zwolnij pamiêæ zajmowana przez sublistê												*/
     4ea:	82 81       	ldd	r24, Z+2	; 0x02
     4ec:	93 81       	ldd	r25, Z+3	; 0x03
     4ee:	0e 94 c5 01 	call	0x38a	; 0x38a <Data_ClearList>
		Job->Current = Job->Current->Next;							/* przesuñ wskaŸnik na element nastêpny													*/
     4f2:	e0 91 70 20 	lds	r30, 0x2070	; 0x802070 <Job>
     4f6:	f0 91 71 20 	lds	r31, 0x2071	; 0x802071 <Job+0x1>
     4fa:	a4 81       	ldd	r26, Z+4	; 0x04
     4fc:	b5 81       	ldd	r27, Z+5	; 0x05
     4fe:	8d 91       	ld	r24, X+
     500:	9c 91       	ld	r25, X
     502:	84 83       	std	Z+4, r24	; 0x04
     504:	95 83       	std	Z+5, r25	; 0x05
}

void Data_ClearJob(void)
{
	Job->Current = Job->Head;										/* ustawienie wskaŸnika aktualnego elementu na pocz¹tek listy							*/
	while(Job->Current)												/* do czasu gdy wskaŸnik na bie¿¹cy element nie wskazuje null, wykonuj:					*/
     506:	a0 91 70 20 	lds	r26, 0x2070	; 0x802070 <Job>
     50a:	b0 91 71 20 	lds	r27, 0x2071	; 0x802071 <Job+0x1>
     50e:	14 96       	adiw	r26, 0x04	; 4
     510:	ed 91       	ld	r30, X+
     512:	fc 91       	ld	r31, X
     514:	15 97       	sbiw	r26, 0x05	; 5
     516:	30 97       	sbiw	r30, 0x00	; 0
     518:	41 f7       	brne	.-48     	; 0x4ea <Data_ClearJob+0x12>
	{
		Data_ClearList(Job->Current->Data);							/* zwolnij pamiêæ zajmowana przez sublistê												*/
		Job->Current = Job->Current->Next;							/* przesuñ wskaŸnik na element nastêpny													*/
	}
	Data_ClearList(Job);											/* zwolnij pamiêæ zajmowan¹ przez listê JOB												*/
     51a:	cd 01       	movw	r24, r26
     51c:	0e 94 c5 01 	call	0x38a	; 0x38a <Data_ClearList>
     520:	08 95       	ret

00000522 <Frame_Init>:
     522:	cf 93       	push	r28
     524:	df 93       	push	r29
     526:	80 e1       	ldi	r24, 0x10	; 16
     528:	90 e0       	ldi	r25, 0x00	; 0
     52a:	0e 94 78 08 	call	0x10f0	; 0x10f0 <malloc>
     52e:	ec 01       	movw	r28, r24
     530:	80 e1       	ldi	r24, 0x10	; 16
     532:	90 e0       	ldi	r25, 0x00	; 0
     534:	0e 94 78 08 	call	0x10f0	; 0x10f0 <malloc>
     538:	88 83       	st	Y, r24
     53a:	99 83       	std	Y+1, r25	; 0x01
     53c:	fc 01       	movw	r30, r24
     53e:	10 82       	st	Z, r1
     540:	80 e1       	ldi	r24, 0x10	; 16
     542:	90 e0       	ldi	r25, 0x00	; 0
     544:	0e 94 78 08 	call	0x10f0	; 0x10f0 <malloc>
     548:	8a 83       	std	Y+2, r24	; 0x02
     54a:	9b 83       	std	Y+3, r25	; 0x03
     54c:	fc 01       	movw	r30, r24
     54e:	10 82       	st	Z, r1
     550:	80 e1       	ldi	r24, 0x10	; 16
     552:	90 e0       	ldi	r25, 0x00	; 0
     554:	0e 94 78 08 	call	0x10f0	; 0x10f0 <malloc>
     558:	8c 83       	std	Y+4, r24	; 0x04
     55a:	9d 83       	std	Y+5, r25	; 0x05
     55c:	fc 01       	movw	r30, r24
     55e:	10 82       	st	Z, r1
     560:	80 e1       	ldi	r24, 0x10	; 16
     562:	90 e0       	ldi	r25, 0x00	; 0
     564:	0e 94 78 08 	call	0x10f0	; 0x10f0 <malloc>
     568:	8e 83       	std	Y+6, r24	; 0x06
     56a:	9f 83       	std	Y+7, r25	; 0x07
     56c:	fc 01       	movw	r30, r24
     56e:	10 82       	st	Z, r1
     570:	80 e1       	ldi	r24, 0x10	; 16
     572:	90 e0       	ldi	r25, 0x00	; 0
     574:	0e 94 78 08 	call	0x10f0	; 0x10f0 <malloc>
     578:	88 87       	std	Y+8, r24	; 0x08
     57a:	99 87       	std	Y+9, r25	; 0x09
     57c:	fc 01       	movw	r30, r24
     57e:	10 82       	st	Z, r1
     580:	80 e1       	ldi	r24, 0x10	; 16
     582:	90 e0       	ldi	r25, 0x00	; 0
     584:	0e 94 78 08 	call	0x10f0	; 0x10f0 <malloc>
     588:	8a 87       	std	Y+10, r24	; 0x0a
     58a:	9b 87       	std	Y+11, r25	; 0x0b
     58c:	fc 01       	movw	r30, r24
     58e:	10 82       	st	Z, r1
     590:	80 e1       	ldi	r24, 0x10	; 16
     592:	90 e0       	ldi	r25, 0x00	; 0
     594:	0e 94 78 08 	call	0x10f0	; 0x10f0 <malloc>
     598:	8e 87       	std	Y+14, r24	; 0x0e
     59a:	9f 87       	std	Y+15, r25	; 0x0f
     59c:	fc 01       	movw	r30, r24
     59e:	10 82       	st	Z, r1
     5a0:	ce 01       	movw	r24, r28
     5a2:	df 91       	pop	r29
     5a4:	cf 91       	pop	r28
     5a6:	08 95       	ret

000005a8 <Frame_Fill>:
     5a8:	0f 93       	push	r16
     5aa:	1f 93       	push	r17
     5ac:	cf 93       	push	r28
     5ae:	df 93       	push	r29
     5b0:	8c 01       	movw	r16, r24
     5b2:	eb 01       	movw	r28, r22
     5b4:	0e 94 0b 05 	call	0xa16	; 0xa16 <Buffer_GetString>
     5b8:	bc 01       	movw	r22, r24
     5ba:	88 81       	ld	r24, Y
     5bc:	99 81       	ldd	r25, Y+1	; 0x01
     5be:	0e 94 b7 09 	call	0x136e	; 0x136e <strcpy>
     5c2:	68 81       	ld	r22, Y
     5c4:	79 81       	ldd	r23, Y+1	; 0x01
     5c6:	42 e0       	ldi	r20, 0x02	; 2
     5c8:	50 e0       	ldi	r21, 0x00	; 0
     5ca:	80 91 15 20 	lds	r24, 0x2015	; 0x802015 <StartCode>
     5ce:	90 91 16 20 	lds	r25, 0x2016	; 0x802016 <StartCode+0x1>
     5d2:	0e 94 be 09 	call	0x137c	; 0x137c <strncmp>
     5d6:	89 2b       	or	r24, r25
     5d8:	09 f0       	breq	.+2      	; 0x5dc <Frame_Fill+0x34>
     5da:	4e c0       	rjmp	.+156    	; 0x678 <Frame_Fill+0xd0>
     5dc:	c8 01       	movw	r24, r16
     5de:	0e 94 0b 05 	call	0xa16	; 0xa16 <Buffer_GetString>
     5e2:	bc 01       	movw	r22, r24
     5e4:	8a 81       	ldd	r24, Y+2	; 0x02
     5e6:	9b 81       	ldd	r25, Y+3	; 0x03
     5e8:	0e 94 b7 09 	call	0x136e	; 0x136e <strcpy>
     5ec:	c8 01       	movw	r24, r16
     5ee:	0e 94 0b 05 	call	0xa16	; 0xa16 <Buffer_GetString>
     5f2:	bc 01       	movw	r22, r24
     5f4:	8c 81       	ldd	r24, Y+4	; 0x04
     5f6:	9d 81       	ldd	r25, Y+5	; 0x05
     5f8:	0e 94 b7 09 	call	0x136e	; 0x136e <strcpy>
     5fc:	c8 01       	movw	r24, r16
     5fe:	0e 94 0b 05 	call	0xa16	; 0xa16 <Buffer_GetString>
     602:	bc 01       	movw	r22, r24
     604:	8e 81       	ldd	r24, Y+6	; 0x06
     606:	9f 81       	ldd	r25, Y+7	; 0x07
     608:	0e 94 b7 09 	call	0x136e	; 0x136e <strcpy>
     60c:	c8 01       	movw	r24, r16
     60e:	0e 94 0b 05 	call	0xa16	; 0xa16 <Buffer_GetString>
     612:	bc 01       	movw	r22, r24
     614:	88 85       	ldd	r24, Y+8	; 0x08
     616:	99 85       	ldd	r25, Y+9	; 0x09
     618:	0e 94 b7 09 	call	0x136e	; 0x136e <strcpy>
     61c:	c8 01       	movw	r24, r16
     61e:	0e 94 0b 05 	call	0xa16	; 0xa16 <Buffer_GetString>
     622:	bc 01       	movw	r22, r24
     624:	8a 85       	ldd	r24, Y+10	; 0x0a
     626:	9b 85       	ldd	r25, Y+11	; 0x0b
     628:	0e 94 b7 09 	call	0x136e	; 0x136e <strcpy>
     62c:	c8 01       	movw	r24, r16
     62e:	0e 94 0b 05 	call	0xa16	; 0xa16 <Buffer_GetString>
     632:	bc 01       	movw	r22, r24
     634:	8c 85       	ldd	r24, Y+12	; 0x0c
     636:	9d 85       	ldd	r25, Y+13	; 0x0d
     638:	0e 94 b7 09 	call	0x136e	; 0x136e <strcpy>
     63c:	c8 01       	movw	r24, r16
     63e:	0e 94 0b 05 	call	0xa16	; 0xa16 <Buffer_GetString>
     642:	bc 01       	movw	r22, r24
     644:	8e 85       	ldd	r24, Y+14	; 0x0e
     646:	9f 85       	ldd	r25, Y+15	; 0x0f
     648:	0e 94 b7 09 	call	0x136e	; 0x136e <strcpy>
     64c:	6e 85       	ldd	r22, Y+14	; 0x0e
     64e:	7f 85       	ldd	r23, Y+15	; 0x0f
     650:	42 e0       	ldi	r20, 0x02	; 2
     652:	50 e0       	ldi	r21, 0x00	; 0
     654:	80 91 13 20 	lds	r24, 0x2013	; 0x802013 <EndCode>
     658:	90 91 14 20 	lds	r25, 0x2014	; 0x802014 <EndCode+0x1>
     65c:	0e 94 be 09 	call	0x137c	; 0x137c <strncmp>
     660:	89 2b       	or	r24, r25
     662:	29 f4       	brne	.+10     	; 0x66e <Frame_Fill+0xc6>
     664:	c8 01       	movw	r24, r16
     666:	0e 94 41 05 	call	0xa82	; 0xa82 <Buffer_Clear>
     66a:	81 e0       	ldi	r24, 0x01	; 1
     66c:	09 c0       	rjmp	.+18     	; 0x680 <Frame_Fill+0xd8>
     66e:	c8 01       	movw	r24, r16
     670:	0e 94 41 05 	call	0xa82	; 0xa82 <Buffer_Clear>
     674:	80 e0       	ldi	r24, 0x00	; 0
     676:	04 c0       	rjmp	.+8      	; 0x680 <Frame_Fill+0xd8>
     678:	c8 01       	movw	r24, r16
     67a:	0e 94 41 05 	call	0xa82	; 0xa82 <Buffer_Clear>
     67e:	80 e0       	ldi	r24, 0x00	; 0
     680:	df 91       	pop	r29
     682:	cf 91       	pop	r28
     684:	1f 91       	pop	r17
     686:	0f 91       	pop	r16
     688:	08 95       	ret

0000068a <Frame_TypeCheck>:
     68a:	cf 93       	push	r28
     68c:	df 93       	push	r29
     68e:	fc 01       	movw	r30, r24
     690:	c2 81       	ldd	r28, Z+2	; 0x02
     692:	d3 81       	ldd	r29, Z+3	; 0x03
     694:	43 e0       	ldi	r20, 0x03	; 3
     696:	50 e0       	ldi	r21, 0x00	; 0
     698:	be 01       	movw	r22, r28
     69a:	80 91 11 20 	lds	r24, 0x2011	; 0x802011 <FrameTypes+0xa>
     69e:	90 91 12 20 	lds	r25, 0x2012	; 0x802012 <FrameTypes+0xb>
     6a2:	0e 94 be 09 	call	0x137c	; 0x137c <strncmp>
     6a6:	89 2b       	or	r24, r25
     6a8:	71 f1       	breq	.+92     	; 0x706 <Frame_TypeCheck+0x7c>
     6aa:	43 e0       	ldi	r20, 0x03	; 3
     6ac:	50 e0       	ldi	r21, 0x00	; 0
     6ae:	be 01       	movw	r22, r28
     6b0:	80 91 0f 20 	lds	r24, 0x200F	; 0x80200f <FrameTypes+0x8>
     6b4:	90 91 10 20 	lds	r25, 0x2010	; 0x802010 <FrameTypes+0x9>
     6b8:	0e 94 be 09 	call	0x137c	; 0x137c <strncmp>
     6bc:	89 2b       	or	r24, r25
     6be:	29 f1       	breq	.+74     	; 0x70a <Frame_TypeCheck+0x80>
     6c0:	43 e0       	ldi	r20, 0x03	; 3
     6c2:	50 e0       	ldi	r21, 0x00	; 0
     6c4:	be 01       	movw	r22, r28
     6c6:	80 91 0d 20 	lds	r24, 0x200D	; 0x80200d <FrameTypes+0x6>
     6ca:	90 91 0e 20 	lds	r25, 0x200E	; 0x80200e <FrameTypes+0x7>
     6ce:	0e 94 be 09 	call	0x137c	; 0x137c <strncmp>
     6d2:	89 2b       	or	r24, r25
     6d4:	e1 f0       	breq	.+56     	; 0x70e <Frame_TypeCheck+0x84>
     6d6:	43 e0       	ldi	r20, 0x03	; 3
     6d8:	50 e0       	ldi	r21, 0x00	; 0
     6da:	be 01       	movw	r22, r28
     6dc:	80 91 0b 20 	lds	r24, 0x200B	; 0x80200b <FrameTypes+0x4>
     6e0:	90 91 0c 20 	lds	r25, 0x200C	; 0x80200c <FrameTypes+0x5>
     6e4:	0e 94 be 09 	call	0x137c	; 0x137c <strncmp>
     6e8:	89 2b       	or	r24, r25
     6ea:	99 f0       	breq	.+38     	; 0x712 <Frame_TypeCheck+0x88>
     6ec:	43 e0       	ldi	r20, 0x03	; 3
     6ee:	50 e0       	ldi	r21, 0x00	; 0
     6f0:	be 01       	movw	r22, r28
     6f2:	80 91 09 20 	lds	r24, 0x2009	; 0x802009 <FrameTypes+0x2>
     6f6:	90 91 0a 20 	lds	r25, 0x200A	; 0x80200a <FrameTypes+0x3>
     6fa:	0e 94 be 09 	call	0x137c	; 0x137c <strncmp>
     6fe:	89 2b       	or	r24, r25
     700:	51 f4       	brne	.+20     	; 0x716 <Frame_TypeCheck+0x8c>
     702:	82 e0       	ldi	r24, 0x02	; 2
     704:	09 c0       	rjmp	.+18     	; 0x718 <Frame_TypeCheck+0x8e>
     706:	86 e0       	ldi	r24, 0x06	; 6
     708:	07 c0       	rjmp	.+14     	; 0x718 <Frame_TypeCheck+0x8e>
     70a:	85 e0       	ldi	r24, 0x05	; 5
     70c:	05 c0       	rjmp	.+10     	; 0x718 <Frame_TypeCheck+0x8e>
     70e:	84 e0       	ldi	r24, 0x04	; 4
     710:	03 c0       	rjmp	.+6      	; 0x718 <Frame_TypeCheck+0x8e>
     712:	83 e0       	ldi	r24, 0x03	; 3
     714:	01 c0       	rjmp	.+2      	; 0x718 <Frame_TypeCheck+0x8e>
     716:	81 e0       	ldi	r24, 0x01	; 1
     718:	df 91       	pop	r29
     71a:	cf 91       	pop	r28
     71c:	08 95       	ret

0000071e <Frame_StatusCheck>:
     71e:	fc 01       	movw	r30, r24
     720:	80 81       	ld	r24, Z
     722:	81 33       	cpi	r24, 0x31	; 49
     724:	31 f0       	breq	.+12     	; 0x732 <Frame_StatusCheck+0x14>
     726:	82 33       	cpi	r24, 0x32	; 50
     728:	31 f0       	breq	.+12     	; 0x736 <Frame_StatusCheck+0x18>
     72a:	83 33       	cpi	r24, 0x33	; 51
     72c:	31 f4       	brne	.+12     	; 0x73a <Frame_StatusCheck+0x1c>
     72e:	83 e0       	ldi	r24, 0x03	; 3
     730:	08 95       	ret
     732:	81 e0       	ldi	r24, 0x01	; 1
     734:	08 95       	ret
     736:	82 e0       	ldi	r24, 0x02	; 2
     738:	08 95       	ret
     73a:	83 e6       	ldi	r24, 0x63	; 99
     73c:	08 95       	ret

0000073e <HC05_SendString>:
	return module;														/* zwrócenie wskaŸnika na zainicjowany modu³			*/
}

void HC05_SendString(char *txt)
{
	Usart_SendString(txt);												/* wys³anie tekstu przez bluetooth						*/
     73e:	0e 94 a8 05 	call	0xb50	; 0xb50 <Usart_SendString>
     742:	08 95       	ret

00000744 <HC05_SendStatus>:
		}
	}
}

uint8_t HC05_SendStatus(char *statusstate)
{
     744:	cf 93       	push	r28
     746:	df 93       	push	r29
     748:	ec 01       	movw	r28, r24
	Usart_SendString("SF\n");
     74a:	8a e3       	ldi	r24, 0x3A	; 58
     74c:	90 e2       	ldi	r25, 0x20	; 32
     74e:	0e 94 a8 05 	call	0xb50	; 0xb50 <Usart_SendString>
	#else
		//round up by default
		__ticks_dc = (uint32_t)(ceil(fabs(__tmp)));
	#endif

	__builtin_avr_delay_cycles(__ticks_dc);
     752:	8f eb       	ldi	r24, 0xBF	; 191
     754:	9a ed       	ldi	r25, 0xDA	; 218
     756:	01 97       	sbiw	r24, 0x01	; 1
     758:	f1 f7       	brne	.-4      	; 0x756 <HC05_SendStatus+0x12>
     75a:	00 c0       	rjmp	.+0      	; 0x75c <HC05_SendStatus+0x18>
     75c:	00 00       	nop
	_delay_ms(7);
	Usart_SendString("STATUS\n");
     75e:	8e e3       	ldi	r24, 0x3E	; 62
     760:	90 e2       	ldi	r25, 0x20	; 32
     762:	0e 94 a8 05 	call	0xb50	; 0xb50 <Usart_SendString>
     766:	9f ef       	ldi	r25, 0xFF	; 255
     768:	28 ea       	ldi	r18, 0xA8	; 168
     76a:	81 e0       	ldi	r24, 0x01	; 1
     76c:	91 50       	subi	r25, 0x01	; 1
     76e:	20 40       	sbci	r18, 0x00	; 0
     770:	80 40       	sbci	r24, 0x00	; 0
     772:	e1 f7       	brne	.-8      	; 0x76c <HC05_SendStatus+0x28>
     774:	00 c0       	rjmp	.+0      	; 0x776 <HC05_SendStatus+0x32>
     776:	00 00       	nop
	_delay_ms(17);
	Usart_SendString(statusstate);
     778:	ce 01       	movw	r24, r28
     77a:	0e 94 a8 05 	call	0xb50	; 0xb50 <Usart_SendString>
     77e:	8f eb       	ldi	r24, 0xBF	; 191
     780:	9a ed       	ldi	r25, 0xDA	; 218
     782:	01 97       	sbiw	r24, 0x01	; 1
     784:	f1 f7       	brne	.-4      	; 0x782 <HC05_SendStatus+0x3e>
     786:	00 c0       	rjmp	.+0      	; 0x788 <HC05_SendStatus+0x44>
     788:	00 00       	nop
	_delay_ms(7);
	Usart_SendString("0\n");
     78a:	86 e4       	ldi	r24, 0x46	; 70
     78c:	90 e2       	ldi	r25, 0x20	; 32
     78e:	0e 94 a8 05 	call	0xb50	; 0xb50 <Usart_SendString>
     792:	8f eb       	ldi	r24, 0xBF	; 191
     794:	9a ed       	ldi	r25, 0xDA	; 218
     796:	01 97       	sbiw	r24, 0x01	; 1
     798:	f1 f7       	brne	.-4      	; 0x796 <HC05_SendStatus+0x52>
     79a:	00 c0       	rjmp	.+0      	; 0x79c <HC05_SendStatus+0x58>
     79c:	00 00       	nop
	_delay_ms(7);
	Usart_SendString("0\n");
     79e:	86 e4       	ldi	r24, 0x46	; 70
     7a0:	90 e2       	ldi	r25, 0x20	; 32
     7a2:	0e 94 a8 05 	call	0xb50	; 0xb50 <Usart_SendString>
     7a6:	8f eb       	ldi	r24, 0xBF	; 191
     7a8:	9a ed       	ldi	r25, 0xDA	; 218
     7aa:	01 97       	sbiw	r24, 0x01	; 1
     7ac:	f1 f7       	brne	.-4      	; 0x7aa <HC05_SendStatus+0x66>
     7ae:	00 c0       	rjmp	.+0      	; 0x7b0 <HC05_SendStatus+0x6c>
     7b0:	00 00       	nop
	_delay_ms(7);
	Usart_SendString("0\n");
     7b2:	86 e4       	ldi	r24, 0x46	; 70
     7b4:	90 e2       	ldi	r25, 0x20	; 32
     7b6:	0e 94 a8 05 	call	0xb50	; 0xb50 <Usart_SendString>
     7ba:	8f eb       	ldi	r24, 0xBF	; 191
     7bc:	9a ed       	ldi	r25, 0xDA	; 218
     7be:	01 97       	sbiw	r24, 0x01	; 1
     7c0:	f1 f7       	brne	.-4      	; 0x7be <HC05_SendStatus+0x7a>
     7c2:	00 c0       	rjmp	.+0      	; 0x7c4 <HC05_SendStatus+0x80>
     7c4:	00 00       	nop
	_delay_ms(7);
	Usart_SendString("0\n");
     7c6:	86 e4       	ldi	r24, 0x46	; 70
     7c8:	90 e2       	ldi	r25, 0x20	; 32
     7ca:	0e 94 a8 05 	call	0xb50	; 0xb50 <Usart_SendString>
     7ce:	8f eb       	ldi	r24, 0xBF	; 191
     7d0:	9a ed       	ldi	r25, 0xDA	; 218
     7d2:	01 97       	sbiw	r24, 0x01	; 1
     7d4:	f1 f7       	brne	.-4      	; 0x7d2 <HC05_SendStatus+0x8e>
     7d6:	00 c0       	rjmp	.+0      	; 0x7d8 <HC05_SendStatus+0x94>
     7d8:	00 00       	nop
	_delay_ms(7);
	Usart_SendString("EF\n");
     7da:	89 e4       	ldi	r24, 0x49	; 73
     7dc:	90 e2       	ldi	r25, 0x20	; 32
     7de:	0e 94 a8 05 	call	0xb50	; 0xb50 <Usart_SendString>
     7e2:	8f eb       	ldi	r24, 0xBF	; 191
     7e4:	9a ed       	ldi	r25, 0xDA	; 218
     7e6:	01 97       	sbiw	r24, 0x01	; 1
     7e8:	f1 f7       	brne	.-4      	; 0x7e6 <HC05_SendStatus+0xa2>
     7ea:	00 c0       	rjmp	.+0      	; 0x7ec <HC05_SendStatus+0xa8>
     7ec:	00 00       	nop
	_delay_ms(7);
	return 1;
}
     7ee:	81 e0       	ldi	r24, 0x01	; 1
     7f0:	df 91       	pop	r29
     7f2:	cf 91       	pop	r28
     7f4:	08 95       	ret

000007f6 <HC05_Read>:
	Usart_SendString(txt);												/* wys³anie tekstu przez bluetooth						*/
}

void HC05_Read(void)
{
	if (ReceivingBuffer->IsFull == TRUE)								/* jeœli bufor odbiorczy pe³ny, to:						*/
     7f6:	e0 91 68 20 	lds	r30, 0x2068	; 0x802068 <ReceivingBuffer>
     7fa:	f0 91 69 20 	lds	r31, 0x2069	; 0x802069 <ReceivingBuffer+0x1>
     7fe:	85 89       	ldd	r24, Z+21	; 0x15
     800:	80 ff       	sbrs	r24, 0
     802:	80 c0       	rjmp	.+256    	; 0x904 <__EEPROM_REGION_LENGTH__+0x104>
	{
		if (Frame_Fill(ReceivingBuffer, ReceivingFrame))
     804:	60 91 64 20 	lds	r22, 0x2064	; 0x802064 <__data_end>
     808:	70 91 65 20 	lds	r23, 0x2065	; 0x802065 <__data_end+0x1>
     80c:	cf 01       	movw	r24, r30
     80e:	0e 94 d4 02 	call	0x5a8	; 0x5a8 <Frame_Fill>
     812:	88 23       	and	r24, r24
     814:	09 f4       	brne	.+2      	; 0x818 <__EEPROM_REGION_LENGTH__+0x18>
     816:	72 c0       	rjmp	.+228    	; 0x8fc <__EEPROM_REGION_LENGTH__+0xfc>
		{
			switch(Frame_TypeCheck(ReceivingFrame))
     818:	80 91 64 20 	lds	r24, 0x2064	; 0x802064 <__data_end>
     81c:	90 91 65 20 	lds	r25, 0x2065	; 0x802065 <__data_end+0x1>
     820:	0e 94 45 03 	call	0x68a	; 0x68a <Frame_TypeCheck>
     824:	83 30       	cpi	r24, 0x03	; 3
     826:	e1 f1       	breq	.+120    	; 0x8a0 <__EEPROM_REGION_LENGTH__+0xa0>
     828:	28 f4       	brcc	.+10     	; 0x834 <__EEPROM_REGION_LENGTH__+0x34>
     82a:	81 30       	cpi	r24, 0x01	; 1
     82c:	61 f0       	breq	.+24     	; 0x846 <__EEPROM_REGION_LENGTH__+0x46>
     82e:	82 30       	cpi	r24, 0x02	; 2
     830:	41 f1       	breq	.+80     	; 0x882 <__EEPROM_REGION_LENGTH__+0x82>
     832:	08 95       	ret
     834:	85 30       	cpi	r24, 0x05	; 5
     836:	09 f4       	brne	.+2      	; 0x83a <__EEPROM_REGION_LENGTH__+0x3a>
     838:	53 c0       	rjmp	.+166    	; 0x8e0 <__EEPROM_REGION_LENGTH__+0xe0>
     83a:	08 f4       	brcc	.+2      	; 0x83e <__EEPROM_REGION_LENGTH__+0x3e>
     83c:	41 c0       	rjmp	.+130    	; 0x8c0 <__EEPROM_REGION_LENGTH__+0xc0>
     83e:	86 30       	cpi	r24, 0x06	; 6
     840:	09 f4       	brne	.+2      	; 0x844 <__EEPROM_REGION_LENGTH__+0x44>
     842:	55 c0       	rjmp	.+170    	; 0x8ee <__EEPROM_REGION_LENGTH__+0xee>
     844:	08 95       	ret
			{
				case 1:
					switch(Frame_StatusCheck(ReceivingFrame->Data1))
     846:	e0 91 64 20 	lds	r30, 0x2064	; 0x802064 <__data_end>
     84a:	f0 91 65 20 	lds	r31, 0x2065	; 0x802065 <__data_end+0x1>
     84e:	84 81       	ldd	r24, Z+4	; 0x04
     850:	95 81       	ldd	r25, Z+5	; 0x05
     852:	0e 94 8f 03 	call	0x71e	; 0x71e <Frame_StatusCheck>
     856:	82 30       	cpi	r24, 0x02	; 2
     858:	51 f0       	breq	.+20     	; 0x86e <__EEPROM_REGION_LENGTH__+0x6e>
     85a:	83 30       	cpi	r24, 0x03	; 3
     85c:	69 f0       	breq	.+26     	; 0x878 <__EEPROM_REGION_LENGTH__+0x78>
     85e:	81 30       	cpi	r24, 0x01	; 1
     860:	09 f0       	breq	.+2      	; 0x864 <__EEPROM_REGION_LENGTH__+0x64>
     862:	50 c0       	rjmp	.+160    	; 0x904 <__EEPROM_REGION_LENGTH__+0x104>
					{
						case 1:
							HC05_SendStatus("1\n");
     864:	8d e4       	ldi	r24, 0x4D	; 77
     866:	90 e2       	ldi	r25, 0x20	; 32
     868:	0e 94 a2 03 	call	0x744	; 0x744 <HC05_SendStatus>
							break;
     86c:	08 95       	ret
						case 2:
							HC05_SendStatus("2\n");
     86e:	80 e5       	ldi	r24, 0x50	; 80
     870:	90 e2       	ldi	r25, 0x20	; 32
     872:	0e 94 a2 03 	call	0x744	; 0x744 <HC05_SendStatus>
							break;
     876:	08 95       	ret
						case 3:
							HC05_SendStatus("3\n");
     878:	83 e5       	ldi	r24, 0x53	; 83
     87a:	90 e2       	ldi	r25, 0x20	; 32
     87c:	0e 94 a2 03 	call	0x744	; 0x744 <HC05_SendStatus>
							//Sys_Reset();
							break;
     880:	08 95       	ret
						default:
							break;
					}
					break;
				case 2:
					Data_InsertMoveToJob(Job, ReceivingFrame);
     882:	60 91 64 20 	lds	r22, 0x2064	; 0x802064 <__data_end>
     886:	70 91 65 20 	lds	r23, 0x2065	; 0x802065 <__data_end+0x1>
     88a:	80 91 70 20 	lds	r24, 0x2070	; 0x802070 <Job>
     88e:	90 91 71 20 	lds	r25, 0x2071	; 0x802071 <Job+0x1>
     892:	0e 94 da 01 	call	0x3b4	; 0x3b4 <Data_InsertMoveToJob>
					HC05_SendStatus("1\n");
     896:	8d e4       	ldi	r24, 0x4D	; 77
     898:	90 e2       	ldi	r25, 0x20	; 32
     89a:	0e 94 a2 03 	call	0x744	; 0x744 <HC05_SendStatus>
					break;
     89e:	08 95       	ret
				case 3:
					Data_InsertTaskToJob(Job, ReceivingFrame, 0);
     8a0:	60 91 64 20 	lds	r22, 0x2064	; 0x802064 <__data_end>
     8a4:	70 91 65 20 	lds	r23, 0x2065	; 0x802065 <__data_end+0x1>
     8a8:	40 e0       	ldi	r20, 0x00	; 0
     8aa:	80 91 70 20 	lds	r24, 0x2070	; 0x802070 <Job>
     8ae:	90 91 71 20 	lds	r25, 0x2071	; 0x802071 <Job+0x1>
     8b2:	0e 94 17 02 	call	0x42e	; 0x42e <Data_InsertTaskToJob>
					HC05_SendStatus("1\n");
     8b6:	8d e4       	ldi	r24, 0x4D	; 77
     8b8:	90 e2       	ldi	r25, 0x20	; 32
     8ba:	0e 94 a2 03 	call	0x744	; 0x744 <HC05_SendStatus>
					break;
     8be:	08 95       	ret
				case 4:
					Data_InsertTaskToJob(Job, ReceivingFrame, 1);
     8c0:	60 91 64 20 	lds	r22, 0x2064	; 0x802064 <__data_end>
     8c4:	70 91 65 20 	lds	r23, 0x2065	; 0x802065 <__data_end+0x1>
     8c8:	41 e0       	ldi	r20, 0x01	; 1
     8ca:	80 91 70 20 	lds	r24, 0x2070	; 0x802070 <Job>
     8ce:	90 91 71 20 	lds	r25, 0x2071	; 0x802071 <Job+0x1>
     8d2:	0e 94 17 02 	call	0x42e	; 0x42e <Data_InsertTaskToJob>
					HC05_SendStatus("1\n");
     8d6:	8d e4       	ldi	r24, 0x4D	; 77
     8d8:	90 e2       	ldi	r25, 0x20	; 32
     8da:	0e 94 a2 03 	call	0x744	; 0x744 <HC05_SendStatus>
					break;
     8de:	08 95       	ret
				case 5:
					HC05_SendStatus("4\n");
     8e0:	86 e5       	ldi	r24, 0x56	; 86
     8e2:	90 e2       	ldi	r25, 0x20	; 32
     8e4:	0e 94 a2 03 	call	0x744	; 0x744 <HC05_SendStatus>
					Work_RunRobot();
     8e8:	0e 94 bd 06 	call	0xd7a	; 0xd7a <Work_RunRobot>
					break;
     8ec:	08 95       	ret
				case 6:
					HC05_SendStatus("5\n");
     8ee:	89 e5       	ldi	r24, 0x59	; 89
     8f0:	90 e2       	ldi	r25, 0x20	; 32
     8f2:	0e 94 a2 03 	call	0x744	; 0x744 <HC05_SendStatus>
					Work_StopRobot();
     8f6:	0e 94 ca 06 	call	0xd94	; 0xd94 <Work_StopRobot>
					break;
     8fa:	08 95       	ret
					break;
			}
		} 
		else
		{
			HC05_SendStatus("99\n");
     8fc:	8c e5       	ldi	r24, 0x5C	; 92
     8fe:	90 e2       	ldi	r25, 0x20	; 32
     900:	0e 94 a2 03 	call	0x744	; 0x744 <HC05_SendStatus>
     904:	08 95       	ret

00000906 <HC05_Init>:
/*------------------------------------------------------------------------------------------------------------------------------*/

/*-------------------------------------------Definicje funkcji------------------------------------------------------------------*/

bluetooth_t *HC05_Init(bluetooth_t *module)
{
     906:	cf 93       	push	r28
     908:	df 93       	push	r29
	module = (bluetooth_t *)malloc(sizeof(bluetooth_t));				/* alokacja pamiêci dla modu³u bluetooth				*/
     90a:	86 e0       	ldi	r24, 0x06	; 6
     90c:	90 e0       	ldi	r25, 0x00	; 0
     90e:	0e 94 78 08 	call	0x10f0	; 0x10f0 <malloc>
     912:	ec 01       	movw	r28, r24
	ReceivingBuffer = Buffer_Init(ReceivingBuffer, RECEIVE_MAX_CHARS);	/*inicjalizacja bufora odbiorczego						*/
     914:	60 e1       	ldi	r22, 0x10	; 16
     916:	80 91 68 20 	lds	r24, 0x2068	; 0x802068 <ReceivingBuffer>
     91a:	90 91 69 20 	lds	r25, 0x2069	; 0x802069 <ReceivingBuffer+0x1>
     91e:	0e 94 b7 04 	call	0x96e	; 0x96e <Buffer_Init>
     922:	80 93 68 20 	sts	0x2068, r24	; 0x802068 <ReceivingBuffer>
     926:	90 93 69 20 	sts	0x2069, r25	; 0x802069 <ReceivingBuffer+0x1>
		//Usart_Init(&USARTD1, &PORTD, PIN7_bp, PIN6_bp);					/* inicjalizacja sprzêtowego uart'u						*/
		Usart_Init(&USARTD0, &PORTD, PIN3_bp, PIN2_bp);					/* inicjalizacja sprzêtowego uart'u						*/
     92a:	22 e0       	ldi	r18, 0x02	; 2
     92c:	43 e0       	ldi	r20, 0x03	; 3
     92e:	60 e6       	ldi	r22, 0x60	; 96
     930:	76 e0       	ldi	r23, 0x06	; 6
     932:	80 ea       	ldi	r24, 0xA0	; 160
     934:	99 e0       	ldi	r25, 0x09	; 9
     936:	0e 94 61 05 	call	0xac2	; 0xac2 <Usart_Init>
		
	ReceivingFrame = Frame_Init(ReceivingFrame);						/* inicjalizacja obs³ugi ramek danych					*/
     93a:	80 91 64 20 	lds	r24, 0x2064	; 0x802064 <__data_end>
     93e:	90 91 65 20 	lds	r25, 0x2065	; 0x802065 <__data_end+0x1>
     942:	0e 94 91 02 	call	0x522	; 0x522 <Frame_Init>
     946:	80 93 64 20 	sts	0x2064, r24	; 0x802064 <__data_end>
     94a:	90 93 65 20 	sts	0x2065, r25	; 0x802065 <__data_end+0x1>
	module->Read = &HC05_Read;											/* ustawienie wskaŸnika na funkcjê odbiorcz¹			*/
     94e:	8b ef       	ldi	r24, 0xFB	; 251
     950:	93 e0       	ldi	r25, 0x03	; 3
     952:	8c 83       	std	Y+4, r24	; 0x04
     954:	9d 83       	std	Y+5, r25	; 0x05
	module->SendString = &HC05_SendString;								/* ustawienie wskaŸnika na funkcjê wysy³aj¹c¹ tekst		*/
     956:	8f e9       	ldi	r24, 0x9F	; 159
     958:	93 e0       	ldi	r25, 0x03	; 3
     95a:	88 83       	st	Y, r24
     95c:	99 83       	std	Y+1, r25	; 0x01
	module->SendStatus = &HC05_SendStatus;								/* ustawienia wskaŸnika na funkcjê wysy³aj¹c¹ status	*/
     95e:	82 ea       	ldi	r24, 0xA2	; 162
     960:	93 e0       	ldi	r25, 0x03	; 3
     962:	8a 83       	std	Y+2, r24	; 0x02
     964:	9b 83       	std	Y+3, r25	; 0x03
	
	return module;														/* zwrócenie wskaŸnika na zainicjowany modu³			*/
}
     966:	ce 01       	movw	r24, r28
     968:	df 91       	pop	r29
     96a:	cf 91       	pop	r28
     96c:	08 95       	ret

0000096e <Buffer_Init>:
     96e:	ef 92       	push	r14
     970:	ff 92       	push	r15
     972:	0f 93       	push	r16
     974:	1f 93       	push	r17
     976:	cf 93       	push	r28
     978:	df 93       	push	r29
     97a:	06 2f       	mov	r16, r22
     97c:	86 e1       	ldi	r24, 0x16	; 22
     97e:	90 e0       	ldi	r25, 0x00	; 0
     980:	0e 94 78 08 	call	0x10f0	; 0x10f0 <malloc>
     984:	7c 01       	movw	r14, r24
     986:	10 e0       	ldi	r17, 0x00	; 0
     988:	0f c0       	rjmp	.+30     	; 0x9a8 <Buffer_Init+0x3a>
     98a:	c1 2f       	mov	r28, r17
     98c:	d0 e0       	ldi	r29, 0x00	; 0
     98e:	80 2f       	mov	r24, r16
     990:	90 e0       	ldi	r25, 0x00	; 0
     992:	0e 94 78 08 	call	0x10f0	; 0x10f0 <malloc>
     996:	cc 0f       	add	r28, r28
     998:	dd 1f       	adc	r29, r29
     99a:	ce 0d       	add	r28, r14
     99c:	df 1d       	adc	r29, r15
     99e:	88 83       	st	Y, r24
     9a0:	99 83       	std	Y+1, r25	; 0x01
     9a2:	fc 01       	movw	r30, r24
     9a4:	10 82       	st	Z, r1
     9a6:	1f 5f       	subi	r17, 0xFF	; 255
     9a8:	19 30       	cpi	r17, 0x09	; 9
     9aa:	78 f3       	brcs	.-34     	; 0x98a <Buffer_Init+0x1c>
     9ac:	80 2f       	mov	r24, r16
     9ae:	90 e0       	ldi	r25, 0x00	; 0
     9b0:	0e 94 78 08 	call	0x10f0	; 0x10f0 <malloc>
     9b4:	f7 01       	movw	r30, r14
     9b6:	82 8b       	std	Z+18, r24	; 0x12
     9b8:	93 8b       	std	Z+19, r25	; 0x13
     9ba:	fc 01       	movw	r30, r24
     9bc:	10 82       	st	Z, r1
     9be:	f7 01       	movw	r30, r14
     9c0:	14 8a       	std	Z+20, r1	; 0x14
     9c2:	85 89       	ldd	r24, Z+21	; 0x15
     9c4:	8e 7f       	andi	r24, 0xFE	; 254
     9c6:	82 60       	ori	r24, 0x02	; 2
     9c8:	85 8b       	std	Z+21, r24	; 0x15
     9ca:	c7 01       	movw	r24, r14
     9cc:	df 91       	pop	r29
     9ce:	cf 91       	pop	r28
     9d0:	1f 91       	pop	r17
     9d2:	0f 91       	pop	r16
     9d4:	ff 90       	pop	r15
     9d6:	ef 90       	pop	r14
     9d8:	08 95       	ret

000009da <Buffer_InsertString>:
     9da:	cf 93       	push	r28
     9dc:	df 93       	push	r29
     9de:	ec 01       	movw	r28, r24
     9e0:	ec 89       	ldd	r30, Y+20	; 0x14
     9e2:	e9 30       	cpi	r30, 0x09	; 9
     9e4:	60 f4       	brcc	.+24     	; 0x9fe <Buffer_InsertString+0x24>
     9e6:	81 e0       	ldi	r24, 0x01	; 1
     9e8:	8e 0f       	add	r24, r30
     9ea:	8c 8b       	std	Y+20, r24	; 0x14
     9ec:	f0 e0       	ldi	r31, 0x00	; 0
     9ee:	ee 0f       	add	r30, r30
     9f0:	ff 1f       	adc	r31, r31
     9f2:	ec 0f       	add	r30, r28
     9f4:	fd 1f       	adc	r31, r29
     9f6:	80 81       	ld	r24, Z
     9f8:	91 81       	ldd	r25, Z+1	; 0x01
     9fa:	0e 94 b7 09 	call	0x136e	; 0x136e <strcpy>
     9fe:	8d 89       	ldd	r24, Y+21	; 0x15
     a00:	8d 7f       	andi	r24, 0xFD	; 253
     a02:	8d 8b       	std	Y+21, r24	; 0x15
     a04:	8c 89       	ldd	r24, Y+20	; 0x14
     a06:	88 30       	cpi	r24, 0x08	; 8
     a08:	19 f4       	brne	.+6      	; 0xa10 <Buffer_InsertString+0x36>
     a0a:	8d 89       	ldd	r24, Y+21	; 0x15
     a0c:	81 60       	ori	r24, 0x01	; 1
     a0e:	8d 8b       	std	Y+21, r24	; 0x15
     a10:	df 91       	pop	r29
     a12:	cf 91       	pop	r28
     a14:	08 95       	ret

00000a16 <Buffer_GetString>:
     a16:	1f 93       	push	r17
     a18:	cf 93       	push	r28
     a1a:	df 93       	push	r29
     a1c:	ec 01       	movw	r28, r24
     a1e:	68 81       	ld	r22, Y
     a20:	79 81       	ldd	r23, Y+1	; 0x01
     a22:	8a 89       	ldd	r24, Y+18	; 0x12
     a24:	9b 89       	ldd	r25, Y+19	; 0x13
     a26:	0e 94 b7 09 	call	0x136e	; 0x136e <strcpy>
     a2a:	10 e0       	ldi	r17, 0x00	; 0
     a2c:	14 c0       	rjmp	.+40     	; 0xa56 <Buffer_GetString+0x40>
     a2e:	81 2f       	mov	r24, r17
     a30:	90 e0       	ldi	r25, 0x00	; 0
     a32:	fc 01       	movw	r30, r24
     a34:	31 96       	adiw	r30, 0x01	; 1
     a36:	ee 0f       	add	r30, r30
     a38:	ff 1f       	adc	r31, r31
     a3a:	ec 0f       	add	r30, r28
     a3c:	fd 1f       	adc	r31, r29
     a3e:	60 81       	ld	r22, Z
     a40:	71 81       	ldd	r23, Z+1	; 0x01
     a42:	88 0f       	add	r24, r24
     a44:	99 1f       	adc	r25, r25
     a46:	fe 01       	movw	r30, r28
     a48:	e8 0f       	add	r30, r24
     a4a:	f9 1f       	adc	r31, r25
     a4c:	80 81       	ld	r24, Z
     a4e:	91 81       	ldd	r25, Z+1	; 0x01
     a50:	0e 94 b7 09 	call	0x136e	; 0x136e <strcpy>
     a54:	1f 5f       	subi	r17, 0xFF	; 255
     a56:	8c 89       	ldd	r24, Y+20	; 0x14
     a58:	18 17       	cp	r17, r24
     a5a:	48 f3       	brcs	.-46     	; 0xa2e <Buffer_GetString+0x18>
     a5c:	88 23       	and	r24, r24
     a5e:	11 f0       	breq	.+4      	; 0xa64 <Buffer_GetString+0x4e>
     a60:	81 50       	subi	r24, 0x01	; 1
     a62:	8c 8b       	std	Y+20, r24	; 0x14
     a64:	8d 89       	ldd	r24, Y+21	; 0x15
     a66:	8e 7f       	andi	r24, 0xFE	; 254
     a68:	8d 8b       	std	Y+21, r24	; 0x15
     a6a:	8c 89       	ldd	r24, Y+20	; 0x14
     a6c:	81 11       	cpse	r24, r1
     a6e:	03 c0       	rjmp	.+6      	; 0xa76 <Buffer_GetString+0x60>
     a70:	8d 89       	ldd	r24, Y+21	; 0x15
     a72:	82 60       	ori	r24, 0x02	; 2
     a74:	8d 8b       	std	Y+21, r24	; 0x15
     a76:	8a 89       	ldd	r24, Y+18	; 0x12
     a78:	9b 89       	ldd	r25, Y+19	; 0x13
     a7a:	df 91       	pop	r29
     a7c:	cf 91       	pop	r28
     a7e:	1f 91       	pop	r17
     a80:	08 95       	ret

00000a82 <Buffer_Clear>:
     a82:	dc 01       	movw	r26, r24
     a84:	90 e0       	ldi	r25, 0x00	; 0
     a86:	0b c0       	rjmp	.+22     	; 0xa9e <Buffer_Clear+0x1c>
     a88:	e9 2f       	mov	r30, r25
     a8a:	f0 e0       	ldi	r31, 0x00	; 0
     a8c:	ee 0f       	add	r30, r30
     a8e:	ff 1f       	adc	r31, r31
     a90:	ea 0f       	add	r30, r26
     a92:	fb 1f       	adc	r31, r27
     a94:	01 90       	ld	r0, Z+
     a96:	f0 81       	ld	r31, Z
     a98:	e0 2d       	mov	r30, r0
     a9a:	10 82       	st	Z, r1
     a9c:	9f 5f       	subi	r25, 0xFF	; 255
     a9e:	99 30       	cpi	r25, 0x09	; 9
     aa0:	98 f3       	brcs	.-26     	; 0xa88 <Buffer_Clear+0x6>
     aa2:	52 96       	adiw	r26, 0x12	; 18
     aa4:	ed 91       	ld	r30, X+
     aa6:	fc 91       	ld	r31, X
     aa8:	53 97       	sbiw	r26, 0x13	; 19
     aaa:	10 82       	st	Z, r1
     aac:	54 96       	adiw	r26, 0x14	; 20
     aae:	1c 92       	st	X, r1
     ab0:	54 97       	sbiw	r26, 0x14	; 20
     ab2:	55 96       	adiw	r26, 0x15	; 21
     ab4:	8c 91       	ld	r24, X
     ab6:	55 97       	sbiw	r26, 0x15	; 21
     ab8:	8e 7f       	andi	r24, 0xFE	; 254
     aba:	82 60       	ori	r24, 0x02	; 2
     abc:	55 96       	adiw	r26, 0x15	; 21
     abe:	8c 93       	st	X, r24
     ac0:	08 95       	ret

00000ac2 <Usart_Init>:
     ac2:	fb 01       	movw	r30, r22
     ac4:	80 93 6c 20 	sts	0x206C, r24	; 0x80206c <RS232Port>
     ac8:	90 93 6d 20 	sts	0x206D, r25	; 0x80206d <RS232Port+0x1>
     acc:	81 e0       	ldi	r24, 0x01	; 1
     ace:	90 e0       	ldi	r25, 0x00	; 0
     ad0:	bc 01       	movw	r22, r24
     ad2:	02 c0       	rjmp	.+4      	; 0xad8 <Usart_Init+0x16>
     ad4:	66 0f       	add	r22, r22
     ad6:	77 1f       	adc	r23, r23
     ad8:	4a 95       	dec	r20
     ada:	e2 f7       	brpl	.-8      	; 0xad4 <Usart_Init+0x12>
     adc:	65 83       	std	Z+5, r22	; 0x05
     ade:	61 83       	std	Z+1, r22	; 0x01
     ae0:	02 c0       	rjmp	.+4      	; 0xae6 <Usart_Init+0x24>
     ae2:	88 0f       	add	r24, r24
     ae4:	99 1f       	adc	r25, r25
     ae6:	2a 95       	dec	r18
     ae8:	e2 f7       	brpl	.-8      	; 0xae2 <Usart_Init+0x20>
     aea:	82 83       	std	Z+2, r24	; 0x02
     aec:	e0 91 6c 20 	lds	r30, 0x206C	; 0x80206c <RS232Port>
     af0:	f0 91 6d 20 	lds	r31, 0x206D	; 0x80206d <RS232Port+0x1>
     af4:	8c e0       	ldi	r24, 0x0C	; 12
     af6:	86 83       	std	Z+6, r24	; 0x06
     af8:	80 e4       	ldi	r24, 0x40	; 64
     afa:	87 83       	std	Z+7, r24	; 0x07
     afc:	83 e0       	ldi	r24, 0x03	; 3
     afe:	85 83       	std	Z+5, r24	; 0x05
     b00:	80 e2       	ldi	r24, 0x20	; 32
     b02:	83 83       	std	Z+3, r24	; 0x03
     b04:	a0 ea       	ldi	r26, 0xA0	; 160
     b06:	b0 e0       	ldi	r27, 0x00	; 0
     b08:	12 96       	adiw	r26, 0x02	; 2
     b0a:	8c 91       	ld	r24, X
     b0c:	12 97       	sbiw	r26, 0x02	; 2
     b0e:	82 60       	ori	r24, 0x02	; 2
     b10:	12 96       	adiw	r26, 0x02	; 2
     b12:	8c 93       	st	X, r24
     b14:	84 81       	ldd	r24, Z+4	; 0x04
     b16:	88 61       	ori	r24, 0x18	; 24
     b18:	84 83       	std	Z+4, r24	; 0x04
     b1a:	80 e0       	ldi	r24, 0x00	; 0
     b1c:	06 c0       	rjmp	.+12     	; 0xb2a <Usart_Init+0x68>
     b1e:	e8 2f       	mov	r30, r24
     b20:	f0 e0       	ldi	r31, 0x00	; 0
     b22:	ec 58       	subi	r30, 0x8C	; 140
     b24:	ff 4d       	sbci	r31, 0xDF	; 223
     b26:	10 82       	st	Z, r1
     b28:	8f 5f       	subi	r24, 0xFF	; 255
     b2a:	80 31       	cpi	r24, 0x10	; 16
     b2c:	c0 f3       	brcs	.-16     	; 0xb1e <Usart_Init+0x5c>
     b2e:	80 e1       	ldi	r24, 0x10	; 16
     b30:	90 e0       	ldi	r25, 0x00	; 0
     b32:	0e 94 78 08 	call	0x10f0	; 0x10f0 <malloc>
     b36:	80 93 84 20 	sts	0x2084, r24	; 0x802084 <ReceivedString>
     b3a:	90 93 85 20 	sts	0x2085, r25	; 0x802085 <ReceivedString+0x1>
     b3e:	80 e1       	ldi	r24, 0x10	; 16
     b40:	90 e0       	ldi	r25, 0x00	; 0
     b42:	0e 94 78 08 	call	0x10f0	; 0x10f0 <malloc>
     b46:	80 93 72 20 	sts	0x2072, r24	; 0x802072 <SendingString>
     b4a:	90 93 73 20 	sts	0x2073, r25	; 0x802073 <SendingString+0x1>
     b4e:	08 95       	ret

00000b50 <Usart_SendString>:
     b50:	bc 01       	movw	r22, r24
     b52:	80 91 72 20 	lds	r24, 0x2072	; 0x802072 <SendingString>
     b56:	90 91 73 20 	lds	r25, 0x2073	; 0x802073 <SendingString+0x1>
     b5a:	0e 94 b7 09 	call	0x136e	; 0x136e <strcpy>
     b5e:	e0 91 6c 20 	lds	r30, 0x206C	; 0x80206c <RS232Port>
     b62:	f0 91 6d 20 	lds	r31, 0x206D	; 0x80206d <RS232Port+0x1>
     b66:	83 81       	ldd	r24, Z+3	; 0x03
     b68:	82 60       	ori	r24, 0x02	; 2
     b6a:	83 83       	std	Z+3, r24	; 0x03
     b6c:	08 95       	ret

00000b6e <Usart_GetString>:
     b6e:	90 ee       	ldi	r25, 0xE0	; 224
     b70:	98 0f       	add	r25, r24
     b72:	9f 35       	cpi	r25, 0x5F	; 95
     b74:	50 f4       	brcc	.+20     	; 0xb8a <Usart_GetString+0x1c>
     b76:	e0 91 6b 20 	lds	r30, 0x206B	; 0x80206b <CharsCount.4246>
     b7a:	91 e0       	ldi	r25, 0x01	; 1
     b7c:	9e 0f       	add	r25, r30
     b7e:	90 93 6b 20 	sts	0x206B, r25	; 0x80206b <CharsCount.4246>
     b82:	f0 e0       	ldi	r31, 0x00	; 0
     b84:	ec 58       	subi	r30, 0x8C	; 140
     b86:	ff 4d       	sbci	r31, 0xDF	; 223
     b88:	80 83       	st	Z, r24
     b8a:	8d 30       	cpi	r24, 0x0D	; 13
     b8c:	31 f0       	breq	.+12     	; 0xb9a <Usart_GetString+0x2c>
     b8e:	88 23       	and	r24, r24
     b90:	21 f0       	breq	.+8      	; 0xb9a <Usart_GetString+0x2c>
     b92:	80 91 6b 20 	lds	r24, 0x206B	; 0x80206b <CharsCount.4246>
     b96:	8d 30       	cpi	r24, 0x0D	; 13
     b98:	d0 f0       	brcs	.+52     	; 0xbce <Usart_GetString+0x60>
     b9a:	a0 91 6b 20 	lds	r26, 0x206B	; 0x80206b <CharsCount.4246>
     b9e:	e1 e0       	ldi	r30, 0x01	; 1
     ba0:	ea 0f       	add	r30, r26
     ba2:	b0 e0       	ldi	r27, 0x00	; 0
     ba4:	ac 58       	subi	r26, 0x8C	; 140
     ba6:	bf 4d       	sbci	r27, 0xDF	; 223
     ba8:	8a e0       	ldi	r24, 0x0A	; 10
     baa:	8c 93       	st	X, r24
     bac:	81 e0       	ldi	r24, 0x01	; 1
     bae:	8e 0f       	add	r24, r30
     bb0:	f0 e0       	ldi	r31, 0x00	; 0
     bb2:	ec 58       	subi	r30, 0x8C	; 140
     bb4:	ff 4d       	sbci	r31, 0xDF	; 223
     bb6:	9d e0       	ldi	r25, 0x0D	; 13
     bb8:	90 83       	st	Z, r25
     bba:	e8 2f       	mov	r30, r24
     bbc:	f0 e0       	ldi	r31, 0x00	; 0
     bbe:	ec 58       	subi	r30, 0x8C	; 140
     bc0:	ff 4d       	sbci	r31, 0xDF	; 223
     bc2:	10 82       	st	Z, r1
     bc4:	10 92 6b 20 	sts	0x206B, r1	; 0x80206b <CharsCount.4246>
     bc8:	84 e7       	ldi	r24, 0x74	; 116
     bca:	90 e2       	ldi	r25, 0x20	; 32
     bcc:	08 95       	ret
     bce:	80 e0       	ldi	r24, 0x00	; 0
     bd0:	90 e0       	ldi	r25, 0x00	; 0
     bd2:	08 95       	ret

00000bd4 <__vector_89>:
     bd4:	1f 92       	push	r1
     bd6:	0f 92       	push	r0
     bd8:	0f b6       	in	r0, 0x3f	; 63
     bda:	0f 92       	push	r0
     bdc:	11 24       	eor	r1, r1
     bde:	08 b6       	in	r0, 0x38	; 56
     be0:	0f 92       	push	r0
     be2:	18 be       	out	0x38, r1	; 56
     be4:	0b b6       	in	r0, 0x3b	; 59
     be6:	0f 92       	push	r0
     be8:	1b be       	out	0x3b, r1	; 59
     bea:	8f 93       	push	r24
     bec:	9f 93       	push	r25
     bee:	ef 93       	push	r30
     bf0:	ff 93       	push	r31
     bf2:	90 91 6a 20 	lds	r25, 0x206A	; 0x80206a <i.4252>
     bf6:	e0 91 72 20 	lds	r30, 0x2072	; 0x802072 <SendingString>
     bfa:	f0 91 73 20 	lds	r31, 0x2073	; 0x802073 <SendingString+0x1>
     bfe:	e9 0f       	add	r30, r25
     c00:	f1 1d       	adc	r31, r1
     c02:	80 81       	ld	r24, Z
     c04:	88 23       	and	r24, r24
     c06:	31 f0       	breq	.+12     	; 0xc14 <__vector_89+0x40>
     c08:	80 32       	cpi	r24, 0x20	; 32
     c0a:	98 f4       	brcc	.+38     	; 0xc32 <__vector_89+0x5e>
     c0c:	8a 30       	cpi	r24, 0x0A	; 10
     c0e:	89 f0       	breq	.+34     	; 0xc32 <__vector_89+0x5e>
     c10:	8d 30       	cpi	r24, 0x0D	; 13
     c12:	79 f0       	breq	.+30     	; 0xc32 <__vector_89+0x5e>
     c14:	e0 91 6c 20 	lds	r30, 0x206C	; 0x80206c <RS232Port>
     c18:	f0 91 6d 20 	lds	r31, 0x206D	; 0x80206d <RS232Port+0x1>
     c1c:	10 82       	st	Z, r1
     c1e:	e0 91 6c 20 	lds	r30, 0x206C	; 0x80206c <RS232Port>
     c22:	f0 91 6d 20 	lds	r31, 0x206D	; 0x80206d <RS232Port+0x1>
     c26:	83 81       	ldd	r24, Z+3	; 0x03
     c28:	8d 7f       	andi	r24, 0xFD	; 253
     c2a:	83 83       	std	Z+3, r24	; 0x03
     c2c:	10 92 6a 20 	sts	0x206A, r1	; 0x80206a <i.4252>
     c30:	08 c0       	rjmp	.+16     	; 0xc42 <__vector_89+0x6e>
     c32:	e0 91 6c 20 	lds	r30, 0x206C	; 0x80206c <RS232Port>
     c36:	f0 91 6d 20 	lds	r31, 0x206D	; 0x80206d <RS232Port+0x1>
     c3a:	9f 5f       	subi	r25, 0xFF	; 255
     c3c:	90 93 6a 20 	sts	0x206A, r25	; 0x80206a <i.4252>
     c40:	80 83       	st	Z, r24
     c42:	ff 91       	pop	r31
     c44:	ef 91       	pop	r30
     c46:	9f 91       	pop	r25
     c48:	8f 91       	pop	r24
     c4a:	0f 90       	pop	r0
     c4c:	0b be       	out	0x3b, r0	; 59
     c4e:	0f 90       	pop	r0
     c50:	08 be       	out	0x38, r0	; 56
     c52:	0f 90       	pop	r0
     c54:	0f be       	out	0x3f, r0	; 63
     c56:	0f 90       	pop	r0
     c58:	1f 90       	pop	r1
     c5a:	18 95       	reti

00000c5c <__vector_88>:
     c5c:	1f 92       	push	r1
     c5e:	0f 92       	push	r0
     c60:	0f b6       	in	r0, 0x3f	; 63
     c62:	0f 92       	push	r0
     c64:	11 24       	eor	r1, r1
     c66:	08 b6       	in	r0, 0x38	; 56
     c68:	0f 92       	push	r0
     c6a:	18 be       	out	0x38, r1	; 56
     c6c:	09 b6       	in	r0, 0x39	; 57
     c6e:	0f 92       	push	r0
     c70:	19 be       	out	0x39, r1	; 57
     c72:	0b b6       	in	r0, 0x3b	; 59
     c74:	0f 92       	push	r0
     c76:	1b be       	out	0x3b, r1	; 59
     c78:	2f 93       	push	r18
     c7a:	3f 93       	push	r19
     c7c:	4f 93       	push	r20
     c7e:	5f 93       	push	r21
     c80:	6f 93       	push	r22
     c82:	7f 93       	push	r23
     c84:	8f 93       	push	r24
     c86:	9f 93       	push	r25
     c88:	af 93       	push	r26
     c8a:	bf 93       	push	r27
     c8c:	ef 93       	push	r30
     c8e:	ff 93       	push	r31
     c90:	e0 91 6c 20 	lds	r30, 0x206C	; 0x80206c <RS232Port>
     c94:	f0 91 6d 20 	lds	r31, 0x206D	; 0x80206d <RS232Port+0x1>
     c98:	80 81       	ld	r24, Z
     c9a:	0e 94 b7 05 	call	0xb6e	; 0xb6e <Usart_GetString>
     c9e:	80 93 84 20 	sts	0x2084, r24	; 0x802084 <ReceivedString>
     ca2:	90 93 85 20 	sts	0x2085, r25	; 0x802085 <ReceivedString+0x1>
     ca6:	00 97       	sbiw	r24, 0x00	; 0
     ca8:	59 f0       	breq	.+22     	; 0xcc0 <__vector_88+0x64>
     caa:	bc 01       	movw	r22, r24
     cac:	80 91 68 20 	lds	r24, 0x2068	; 0x802068 <ReceivingBuffer>
     cb0:	90 91 69 20 	lds	r25, 0x2069	; 0x802069 <ReceivingBuffer+0x1>
     cb4:	0e 94 ed 04 	call	0x9da	; 0x9da <Buffer_InsertString>
     cb8:	10 92 84 20 	sts	0x2084, r1	; 0x802084 <ReceivedString>
     cbc:	10 92 85 20 	sts	0x2085, r1	; 0x802085 <ReceivedString+0x1>
     cc0:	ff 91       	pop	r31
     cc2:	ef 91       	pop	r30
     cc4:	bf 91       	pop	r27
     cc6:	af 91       	pop	r26
     cc8:	9f 91       	pop	r25
     cca:	8f 91       	pop	r24
     ccc:	7f 91       	pop	r23
     cce:	6f 91       	pop	r22
     cd0:	5f 91       	pop	r21
     cd2:	4f 91       	pop	r20
     cd4:	3f 91       	pop	r19
     cd6:	2f 91       	pop	r18
     cd8:	0f 90       	pop	r0
     cda:	0b be       	out	0x3b, r0	; 59
     cdc:	0f 90       	pop	r0
     cde:	09 be       	out	0x39, r0	; 57
     ce0:	0f 90       	pop	r0
     ce2:	08 be       	out	0x38, r0	; 56
     ce4:	0f 90       	pop	r0
     ce6:	0f be       	out	0x3f, r0	; 63
     ce8:	0f 90       	pop	r0
     cea:	1f 90       	pop	r1
     cec:	18 95       	reti

00000cee <Drivers_SetParameters>:
}

void Drivers_SetParameters(move_t *move)
{
	static uint16_t x = 2333;
	if (x > 5)
     cee:	20 91 17 20 	lds	r18, 0x2017	; 0x802017 <x.4115>
     cf2:	30 91 18 20 	lds	r19, 0x2018	; 0x802018 <x.4115+0x1>
     cf6:	26 30       	cpi	r18, 0x06	; 6
     cf8:	31 05       	cpc	r19, r1
     cfa:	38 f0       	brcs	.+14     	; 0xd0a <Drivers_SetParameters+0x1c>
	{
		x = move->Angle;
     cfc:	fc 01       	movw	r30, r24
     cfe:	81 81       	ldd	r24, Z+1	; 0x01
     d00:	90 e0       	ldi	r25, 0x00	; 0
     d02:	80 93 17 20 	sts	0x2017, r24	; 0x802017 <x.4115>
     d06:	90 93 18 20 	sts	0x2018, r25	; 0x802018 <x.4115+0x1>
     d0a:	08 95       	ret

00000d0c <Work_TimerStart>:
	PMIC.CTRL |= PMIC_LOLVLEN_bm;												/* odblokowanie przerwañ o niskim priorytecie								*/
}

void Work_TimerStart(TC0_t *timer)
{
	timer->CTRLA = TC_CLKSEL_DIV1024_gc;										/* preskaler = 1024, timer uruchomiony										*/
     d0c:	27 e0       	ldi	r18, 0x07	; 7
     d0e:	fc 01       	movw	r30, r24
     d10:	20 83       	st	Z, r18
     d12:	08 95       	ret

00000d14 <Work_TimerStop>:
}

void Work_TimerStop(TC0_t *timer)
{
	timer->CTRLA = TC_CLKSEL_OFF_gc;											/* preskaler = 0, timer zatrzymany											*/
     d14:	fc 01       	movw	r30, r24
     d16:	10 82       	st	Z, r1
     d18:	08 95       	ret

00000d1a <Work_TimerInit>:
/*----------------------------------------------------------------------------------------------------------------------------------------------------------*/

/*-------------------------------------------Definicje funkcji----------------------------------------------------------------------------------------------*/

void Work_TimerInit(TC0_t *timer)
{
     d1a:	cf 93       	push	r28
     d1c:	df 93       	push	r29
     d1e:	ec 01       	movw	r28, r24
	timer->PER = 2;																/* ustawienie wartoœci TOP dla timera										*/
     d20:	82 e0       	ldi	r24, 0x02	; 2
     d22:	90 e0       	ldi	r25, 0x00	; 0
     d24:	8e a3       	std	Y+38, r24	; 0x26
     d26:	9f a3       	std	Y+39, r25	; 0x27
	timer->CNT = 0;																/* zerowanie aktualnej wartoœci timera										*/
     d28:	18 a2       	std	Y+32, r1	; 0x20
     d2a:	19 a2       	std	Y+33, r1	; 0x21
	Work_TimerStop(timer);														/* zatrzymanie timera														*/
     d2c:	ce 01       	movw	r24, r28
     d2e:	0e 94 8a 06 	call	0xd14	; 0xd14 <Work_TimerStop>
	timer->INTCTRLA = TC_OVFINTLVL_LO_gc;										/* odblokowanie przerwania przepe³nienia timera								*/
     d32:	81 e0       	ldi	r24, 0x01	; 1
     d34:	8e 83       	std	Y+6, r24	; 0x06
	PMIC.CTRL |= PMIC_LOLVLEN_bm;												/* odblokowanie przerwañ o niskim priorytecie								*/
     d36:	e0 ea       	ldi	r30, 0xA0	; 160
     d38:	f0 e0       	ldi	r31, 0x00	; 0
     d3a:	82 81       	ldd	r24, Z+2	; 0x02
     d3c:	81 60       	ori	r24, 0x01	; 1
     d3e:	82 83       	std	Z+2, r24	; 0x02
}
     d40:	df 91       	pop	r29
     d42:	cf 91       	pop	r28
     d44:	08 95       	ret

00000d46 <Work_GetParameters>:
{
	timer->CTRLA = TC_CLKSEL_OFF_gc;											/* preskaler = 0, timer zatrzymany											*/
}

uint8_t Work_GetParameters(list_t *list)
{
     d46:	cf 93       	push	r28
     d48:	df 93       	push	r29
	if (list->Current != NULL)													/* jeœli lista nie jest pusta, to:											*/						
     d4a:	fc 01       	movw	r30, r24
     d4c:	24 81       	ldd	r18, Z+4	; 0x04
     d4e:	35 81       	ldd	r19, Z+5	; 0x05
     d50:	23 2b       	or	r18, r19
     d52:	79 f0       	breq	.+30     	; 0xd72 <Work_GetParameters+0x2c>
	{
		list_t *task;															/* deklaracja wskaŸnika na listê ruchów pobran¹ z listy Job					*/
		task = Data_GetTaskFromList(list);										/* pobranie listy ruchów													*/
     d54:	0e 94 85 01 	call	0x30a	; 0x30a <Data_GetTaskFromList>
     d58:	ec 01       	movw	r28, r24
		while (task->Current != NULL)											/* do czasu gdy wskaŸnik na ruch nie jest pusty, to:						*/
     d5a:	05 c0       	rjmp	.+10     	; 0xd66 <Work_GetParameters+0x20>
		{
			move_t *move;														/* deklaracja wskaŸnika na ruch												*/
			move = Data_GetMoveFromList(task);									/* pobranie ruchu															*/
     d5c:	ce 01       	movw	r24, r28
     d5e:	0e 94 91 01 	call	0x322	; 0x322 <Data_GetMoveFromList>
 			Drivers_SetParameters(move);
     d62:	0e 94 77 06 	call	0xcee	; 0xcee <Drivers_SetParameters>
{
	if (list->Current != NULL)													/* jeœli lista nie jest pusta, to:											*/						
	{
		list_t *task;															/* deklaracja wskaŸnika na listê ruchów pobran¹ z listy Job					*/
		task = Data_GetTaskFromList(list);										/* pobranie listy ruchów													*/
		while (task->Current != NULL)											/* do czasu gdy wskaŸnik na ruch nie jest pusty, to:						*/
     d66:	8c 81       	ldd	r24, Y+4	; 0x04
     d68:	9d 81       	ldd	r25, Y+5	; 0x05
     d6a:	89 2b       	or	r24, r25
     d6c:	b9 f7       	brne	.-18     	; 0xd5c <Work_GetParameters+0x16>
		{
			move_t *move;														/* deklaracja wskaŸnika na ruch												*/
			move = Data_GetMoveFromList(task);									/* pobranie ruchu															*/
 			Drivers_SetParameters(move);
		}
		return 1;
     d6e:	81 e0       	ldi	r24, 0x01	; 1
     d70:	01 c0       	rjmp	.+2      	; 0xd74 <Work_GetParameters+0x2e>
	}
	else
	{
		return 0;
     d72:	80 e0       	ldi	r24, 0x00	; 0
	}
}
     d74:	df 91       	pop	r29
     d76:	cf 91       	pop	r28
     d78:	08 95       	ret

00000d7a <Work_RunRobot>:

void Work_RunRobot(void)
{
	Work_TimerInit(RunTaskTimer);												/* inicjalizacje timera														*/
     d7a:	80 91 19 20 	lds	r24, 0x2019	; 0x802019 <RunTaskTimer>
     d7e:	90 91 1a 20 	lds	r25, 0x201A	; 0x80201a <RunTaskTimer+0x1>
     d82:	0e 94 8d 06 	call	0xd1a	; 0xd1a <Work_TimerInit>
	Work_TimerStart(RunTaskTimer);														/* uruchomienie timera														*/
     d86:	80 91 19 20 	lds	r24, 0x2019	; 0x802019 <RunTaskTimer>
     d8a:	90 91 1a 20 	lds	r25, 0x201A	; 0x80201a <RunTaskTimer+0x1>
     d8e:	0e 94 86 06 	call	0xd0c	; 0xd0c <Work_TimerStart>
     d92:	08 95       	ret

00000d94 <Work_StopRobot>:
}

void Work_StopRobot(void)
{
	Work_TimerStop(RunTaskTimer);														/* zatrzymanie timera														*/
     d94:	80 91 19 20 	lds	r24, 0x2019	; 0x802019 <RunTaskTimer>
     d98:	90 91 1a 20 	lds	r25, 0x201A	; 0x80201a <RunTaskTimer+0x1>
     d9c:	0e 94 8a 06 	call	0xd14	; 0xd14 <Work_TimerStop>
     da0:	08 95       	ret

00000da2 <Work_RunTask>:
	//Drivers_StopDrivers();
}

void Work_RunTask(list_t *joblist, uint8_t(*sendstatus)(char *))
{
     da2:	cf 93       	push	r28
     da4:	df 93       	push	r29
     da6:	eb 01       	movw	r28, r22
	uint8_t IsParametersOk = 0;													/* zmienna do przechowywania rezultatu pobrania parametrów					*/
	if (!IsTaskInProgress)														/* jeœli zadanie nie zosta³o uruchomione, to:								*/
     da8:	20 91 6e 20 	lds	r18, 0x206E	; 0x80206e <IsTaskInProgress>
     dac:	21 11       	cpse	r18, r1
     dae:	03 c0       	rjmp	.+6      	; 0xdb6 <Work_RunTask+0x14>
	{
		IsParametersOk = Work_GetParameters(joblist);							/* pobierz parametry i zapisz je w sterownikach								*/
     db0:	0e 94 a3 06 	call	0xd46	; 0xd46 <Work_GetParameters>
     db4:	01 c0       	rjmp	.+2      	; 0xdb8 <Work_RunTask+0x16>
	//Drivers_StopDrivers();
}

void Work_RunTask(list_t *joblist, uint8_t(*sendstatus)(char *))
{
	uint8_t IsParametersOk = 0;													/* zmienna do przechowywania rezultatu pobrania parametrów					*/
     db6:	80 e0       	ldi	r24, 0x00	; 0
	if (!IsTaskInProgress)														/* jeœli zadanie nie zosta³o uruchomione, to:								*/
	{
		IsParametersOk = Work_GetParameters(joblist);							/* pobierz parametry i zapisz je w sterownikach								*/
	} 
	if (IsTaskInProgress || IsParametersOk)										/* jeœli zadanie jest ju¿ uruchomione lub pobranie parametrów ok, to:		*/								
     db8:	90 91 6e 20 	lds	r25, 0x206E	; 0x80206e <IsTaskInProgress>
     dbc:	91 11       	cpse	r25, r1
     dbe:	02 c0       	rjmp	.+4      	; 0xdc4 <Work_RunTask+0x22>
     dc0:	88 23       	and	r24, r24
     dc2:	31 f0       	breq	.+12     	; 0xdd0 <Work_RunTask+0x2e>
	{
		//Drivers_RunDrivers();													/* uruchomienie driverów													*/
		IsJobInProgress = 1;
     dc4:	81 e0       	ldi	r24, 0x01	; 1
     dc6:	80 93 6f 20 	sts	0x206F, r24	; 0x80206f <IsJobInProgress>
		IsTaskInProgress = 1;
     dca:	80 93 6e 20 	sts	0x206E, r24	; 0x80206e <IsTaskInProgress>
     dce:	13 c0       	rjmp	.+38     	; 0xdf6 <Work_RunTask+0x54>
	}
	else if (!IsParametersOk)													/* jeœli pobieranie parametrów zakoñczy³o siê niepowodzeniem, to:			*/								
     dd0:	81 11       	cpse	r24, r1
     dd2:	11 c0       	rjmp	.+34     	; 0xdf6 <Work_RunTask+0x54>
	{
		if (IsJobInProgress)													/* jeœli za³¹czone zosta³o wykonywanie pracy, to:							*/
     dd4:	80 91 6f 20 	lds	r24, 0x206F	; 0x80206f <IsJobInProgress>
     dd8:	88 23       	and	r24, r24
     dda:	49 f0       	breq	.+18     	; 0xdee <Work_RunTask+0x4c>
		{
			IsJobInProgress = 0;												/* wyzeruj flagê informuj¹c¹ o wykonywaniu pracy							*/
     ddc:	10 92 6f 20 	sts	0x206F, r1	; 0x80206f <IsJobInProgress>
			Data_ClearJob();													/* wyczyœæ listê job														*/
     de0:	0e 94 6c 02 	call	0x4d8	; 0x4d8 <Data_ClearJob>
			sendstatus("6\n");													/* wyœlij informacjê ¿e robot zakoñczy³ pracê								*/
     de4:	80 e6       	ldi	r24, 0x60	; 96
     de6:	90 e2       	ldi	r25, 0x20	; 32
     de8:	fe 01       	movw	r30, r28
     dea:	19 95       	eicall
     dec:	04 c0       	rjmp	.+8      	; 0xdf6 <Work_RunTask+0x54>
		} 
		else
		{
			sendstatus("99\n");													/* b³¹d wykonywania pracy													*/
     dee:	8c e5       	ldi	r24, 0x5C	; 92
     df0:	90 e2       	ldi	r25, 0x20	; 32
     df2:	fe 01       	movw	r30, r28
     df4:	19 95       	eicall
		}
	}
	
}
     df6:	df 91       	pop	r29
     df8:	cf 91       	pop	r28
     dfa:	08 95       	ret

00000dfc <__vector_108>:
/*----------------------------------------------------------------------------------------------------------------------------------------------------------*/

/*---------------------------------------------------------------przerwania---------------------------------------------------------------------------------*/

ISR(TCF0_OVF_vect)
{
     dfc:	1f 92       	push	r1
     dfe:	0f 92       	push	r0
     e00:	0f b6       	in	r0, 0x3f	; 63
     e02:	0f 92       	push	r0
     e04:	11 24       	eor	r1, r1
     e06:	08 b6       	in	r0, 0x38	; 56
     e08:	0f 92       	push	r0
     e0a:	18 be       	out	0x38, r1	; 56
     e0c:	09 b6       	in	r0, 0x39	; 57
     e0e:	0f 92       	push	r0
     e10:	19 be       	out	0x39, r1	; 57
     e12:	0b b6       	in	r0, 0x3b	; 59
     e14:	0f 92       	push	r0
     e16:	1b be       	out	0x3b, r1	; 59
     e18:	2f 93       	push	r18
     e1a:	3f 93       	push	r19
     e1c:	4f 93       	push	r20
     e1e:	5f 93       	push	r21
     e20:	6f 93       	push	r22
     e22:	7f 93       	push	r23
     e24:	8f 93       	push	r24
     e26:	9f 93       	push	r25
     e28:	af 93       	push	r26
     e2a:	bf 93       	push	r27
     e2c:	ef 93       	push	r30
     e2e:	ff 93       	push	r31
	Work_RunTask(Job, &HC05_SendStatus);
     e30:	62 ea       	ldi	r22, 0xA2	; 162
     e32:	73 e0       	ldi	r23, 0x03	; 3
     e34:	80 91 70 20 	lds	r24, 0x2070	; 0x802070 <Job>
     e38:	90 91 71 20 	lds	r25, 0x2071	; 0x802071 <Job+0x1>
     e3c:	0e 94 d1 06 	call	0xda2	; 0xda2 <Work_RunTask>

	Work_StopRobot();
     e40:	0e 94 ca 06 	call	0xd94	; 0xd94 <Work_StopRobot>
}
     e44:	ff 91       	pop	r31
     e46:	ef 91       	pop	r30
     e48:	bf 91       	pop	r27
     e4a:	af 91       	pop	r26
     e4c:	9f 91       	pop	r25
     e4e:	8f 91       	pop	r24
     e50:	7f 91       	pop	r23
     e52:	6f 91       	pop	r22
     e54:	5f 91       	pop	r21
     e56:	4f 91       	pop	r20
     e58:	3f 91       	pop	r19
     e5a:	2f 91       	pop	r18
     e5c:	0f 90       	pop	r0
     e5e:	0b be       	out	0x3b, r0	; 59
     e60:	0f 90       	pop	r0
     e62:	09 be       	out	0x39, r0	; 57
     e64:	0f 90       	pop	r0
     e66:	08 be       	out	0x38, r0	; 56
     e68:	0f 90       	pop	r0
     e6a:	0f be       	out	0x3f, r0	; 63
     e6c:	0f 90       	pop	r0
     e6e:	1f 90       	pop	r1
     e70:	18 95       	reti

00000e72 <ssd1306SendCmdNoPar>:
     e72:	1f 93       	push	r17
     e74:	cf 93       	push	r28
     e76:	df 93       	push	r29
     e78:	ec 01       	movw	r28, r24
     e7a:	14 2f       	mov	r17, r20
     e7c:	0e 94 2a 08 	call	0x1054	; 0x1054 <twiSendAddress>
     e80:	60 e8       	ldi	r22, 0x80	; 128
     e82:	ce 01       	movw	r24, r28
     e84:	0e 94 30 08 	call	0x1060	; 0x1060 <twiSendData>
     e88:	61 2f       	mov	r22, r17
     e8a:	ce 01       	movw	r24, r28
     e8c:	0e 94 30 08 	call	0x1060	; 0x1060 <twiSendData>
     e90:	60 e8       	ldi	r22, 0x80	; 128
     e92:	ce 01       	movw	r24, r28
     e94:	0e 94 30 08 	call	0x1060	; 0x1060 <twiSendData>
     e98:	61 2f       	mov	r22, r17
     e9a:	ce 01       	movw	r24, r28
     e9c:	0e 94 30 08 	call	0x1060	; 0x1060 <twiSendData>
     ea0:	ce 01       	movw	r24, r28
     ea2:	0e 94 36 08 	call	0x106c	; 0x106c <twiStop>
     ea6:	df 91       	pop	r29
     ea8:	cf 91       	pop	r28
     eaa:	1f 91       	pop	r17
     eac:	08 95       	ret

00000eae <ssd1306SendCmdOnePar>:
     eae:	0f 93       	push	r16
     eb0:	1f 93       	push	r17
     eb2:	cf 93       	push	r28
     eb4:	df 93       	push	r29
     eb6:	ec 01       	movw	r28, r24
     eb8:	14 2f       	mov	r17, r20
     eba:	02 2f       	mov	r16, r18
     ebc:	0e 94 2a 08 	call	0x1054	; 0x1054 <twiSendAddress>
     ec0:	60 e8       	ldi	r22, 0x80	; 128
     ec2:	ce 01       	movw	r24, r28
     ec4:	0e 94 30 08 	call	0x1060	; 0x1060 <twiSendData>
     ec8:	61 2f       	mov	r22, r17
     eca:	ce 01       	movw	r24, r28
     ecc:	0e 94 30 08 	call	0x1060	; 0x1060 <twiSendData>
     ed0:	60 e8       	ldi	r22, 0x80	; 128
     ed2:	ce 01       	movw	r24, r28
     ed4:	0e 94 30 08 	call	0x1060	; 0x1060 <twiSendData>
     ed8:	61 2f       	mov	r22, r17
     eda:	ce 01       	movw	r24, r28
     edc:	0e 94 30 08 	call	0x1060	; 0x1060 <twiSendData>
     ee0:	60 2f       	mov	r22, r16
     ee2:	ce 01       	movw	r24, r28
     ee4:	0e 94 30 08 	call	0x1060	; 0x1060 <twiSendData>
     ee8:	ce 01       	movw	r24, r28
     eea:	0e 94 36 08 	call	0x106c	; 0x106c <twiStop>
     eee:	df 91       	pop	r29
     ef0:	cf 91       	pop	r28
     ef2:	1f 91       	pop	r17
     ef4:	0f 91       	pop	r16
     ef6:	08 95       	ret

00000ef8 <ssd1306DispOn>:
     ef8:	cf 93       	push	r28
     efa:	df 93       	push	r29
     efc:	ec 01       	movw	r28, r24
     efe:	24 e1       	ldi	r18, 0x14	; 20
     f00:	4d e8       	ldi	r20, 0x8D	; 141
     f02:	68 e7       	ldi	r22, 0x78	; 120
     f04:	0e 94 57 07 	call	0xeae	; 0xeae <ssd1306SendCmdOnePar>
     f08:	4f ea       	ldi	r20, 0xAF	; 175
     f0a:	68 e7       	ldi	r22, 0x78	; 120
     f0c:	ce 01       	movw	r24, r28
     f0e:	0e 94 39 07 	call	0xe72	; 0xe72 <ssd1306SendCmdNoPar>
     f12:	df 91       	pop	r29
     f14:	cf 91       	pop	r28
     f16:	08 95       	ret

00000f18 <ssd1306Init>:
     f18:	cf 93       	push	r28
     f1a:	df 93       	push	r29
     f1c:	ec 01       	movw	r28, r24
     f1e:	23 e0       	ldi	r18, 0x03	; 3
     f20:	4a ed       	ldi	r20, 0xDA	; 218
     f22:	68 e7       	ldi	r22, 0x78	; 120
     f24:	0e 94 57 07 	call	0xeae	; 0xeae <ssd1306SendCmdOnePar>
     f28:	48 ec       	ldi	r20, 0xC8	; 200
     f2a:	68 e7       	ldi	r22, 0x78	; 120
     f2c:	ce 01       	movw	r24, r28
     f2e:	0e 94 39 07 	call	0xe72	; 0xe72 <ssd1306SendCmdNoPar>
     f32:	22 e0       	ldi	r18, 0x02	; 2
     f34:	40 e2       	ldi	r20, 0x20	; 32
     f36:	68 e7       	ldi	r22, 0x78	; 120
     f38:	ce 01       	movw	r24, r28
     f3a:	0e 94 57 07 	call	0xeae	; 0xeae <ssd1306SendCmdOnePar>
     f3e:	40 eb       	ldi	r20, 0xB0	; 176
     f40:	68 e7       	ldi	r22, 0x78	; 120
     f42:	ce 01       	movw	r24, r28
     f44:	0e 94 39 07 	call	0xe72	; 0xe72 <ssd1306SendCmdNoPar>
     f48:	40 e0       	ldi	r20, 0x00	; 0
     f4a:	68 e7       	ldi	r22, 0x78	; 120
     f4c:	ce 01       	movw	r24, r28
     f4e:	0e 94 39 07 	call	0xe72	; 0xe72 <ssd1306SendCmdNoPar>
     f52:	40 e1       	ldi	r20, 0x10	; 16
     f54:	68 e7       	ldi	r22, 0x78	; 120
     f56:	ce 01       	movw	r24, r28
     f58:	0e 94 39 07 	call	0xe72	; 0xe72 <ssd1306SendCmdNoPar>
     f5c:	40 e4       	ldi	r20, 0x40	; 64
     f5e:	68 e7       	ldi	r22, 0x78	; 120
     f60:	ce 01       	movw	r24, r28
     f62:	0e 94 39 07 	call	0xe72	; 0xe72 <ssd1306SendCmdNoPar>
     f66:	41 ea       	ldi	r20, 0xA1	; 161
     f68:	68 e7       	ldi	r22, 0x78	; 120
     f6a:	ce 01       	movw	r24, r28
     f6c:	0e 94 39 07 	call	0xe72	; 0xe72 <ssd1306SendCmdNoPar>
     f70:	ce 01       	movw	r24, r28
     f72:	0e 94 7c 07 	call	0xef8	; 0xef8 <ssd1306DispOn>
     f76:	df 91       	pop	r29
     f78:	cf 91       	pop	r28
     f7a:	08 95       	ret

00000f7c <ssd1306SendByte>:
     f7c:	1f 93       	push	r17
     f7e:	cf 93       	push	r28
     f80:	df 93       	push	r29
     f82:	ec 01       	movw	r28, r24
     f84:	14 2f       	mov	r17, r20
     f86:	0e 94 2a 08 	call	0x1054	; 0x1054 <twiSendAddress>
     f8a:	60 ec       	ldi	r22, 0xC0	; 192
     f8c:	ce 01       	movw	r24, r28
     f8e:	0e 94 30 08 	call	0x1060	; 0x1060 <twiSendData>
     f92:	61 2f       	mov	r22, r17
     f94:	ce 01       	movw	r24, r28
     f96:	0e 94 30 08 	call	0x1060	; 0x1060 <twiSendData>
     f9a:	ce 01       	movw	r24, r28
     f9c:	0e 94 36 08 	call	0x106c	; 0x106c <twiStop>
     fa0:	df 91       	pop	r29
     fa2:	cf 91       	pop	r28
     fa4:	1f 91       	pop	r17
     fa6:	08 95       	ret

00000fa8 <ssd1306Locate>:
     fa8:	0f 93       	push	r16
     faa:	1f 93       	push	r17
     fac:	cf 93       	push	r28
     fae:	8c 01       	movw	r16, r24
     fb0:	c6 2f       	mov	r28, r22
     fb2:	40 55       	subi	r20, 0x50	; 80
     fb4:	68 e7       	ldi	r22, 0x78	; 120
     fb6:	0e 94 39 07 	call	0xe72	; 0xe72 <ssd1306SendCmdNoPar>
     fba:	4c 2f       	mov	r20, r28
     fbc:	4f 70       	andi	r20, 0x0F	; 15
     fbe:	68 e7       	ldi	r22, 0x78	; 120
     fc0:	c8 01       	movw	r24, r16
     fc2:	0e 94 39 07 	call	0xe72	; 0xe72 <ssd1306SendCmdNoPar>
     fc6:	4c 2f       	mov	r20, r28
     fc8:	42 95       	swap	r20
     fca:	4f 70       	andi	r20, 0x0F	; 15
     fcc:	40 5f       	subi	r20, 0xF0	; 240
     fce:	68 e7       	ldi	r22, 0x78	; 120
     fd0:	c8 01       	movw	r24, r16
     fd2:	0e 94 39 07 	call	0xe72	; 0xe72 <ssd1306SendCmdNoPar>
     fd6:	cf 91       	pop	r28
     fd8:	1f 91       	pop	r17
     fda:	0f 91       	pop	r16
     fdc:	08 95       	ret

00000fde <ssd1306ClrScr>:
     fde:	cf 92       	push	r12
     fe0:	df 92       	push	r13
     fe2:	ff 92       	push	r15
     fe4:	0f 93       	push	r16
     fe6:	1f 93       	push	r17
     fe8:	cf 93       	push	r28
     fea:	df 93       	push	r29
     fec:	8c 01       	movw	r16, r24
     fee:	f6 2e       	mov	r15, r22
     ff0:	c1 2c       	mov	r12, r1
     ff2:	d1 2c       	mov	r13, r1
     ff4:	14 c0       	rjmp	.+40     	; 0x101e <ssd1306ClrScr+0x40>
     ff6:	4c 2d       	mov	r20, r12
     ff8:	60 e0       	ldi	r22, 0x00	; 0
     ffa:	c8 01       	movw	r24, r16
     ffc:	0e 94 d4 07 	call	0xfa8	; 0xfa8 <ssd1306Locate>
    1000:	c0 e0       	ldi	r28, 0x00	; 0
    1002:	d0 e0       	ldi	r29, 0x00	; 0
    1004:	06 c0       	rjmp	.+12     	; 0x1012 <ssd1306ClrScr+0x34>
    1006:	4f 2d       	mov	r20, r15
    1008:	68 e7       	ldi	r22, 0x78	; 120
    100a:	c8 01       	movw	r24, r16
    100c:	0e 94 be 07 	call	0xf7c	; 0xf7c <ssd1306SendByte>
    1010:	21 96       	adiw	r28, 0x01	; 1
    1012:	c0 38       	cpi	r28, 0x80	; 128
    1014:	d1 05       	cpc	r29, r1
    1016:	b8 f3       	brcs	.-18     	; 0x1006 <ssd1306ClrScr+0x28>
    1018:	8f ef       	ldi	r24, 0xFF	; 255
    101a:	c8 1a       	sub	r12, r24
    101c:	d8 0a       	sbc	r13, r24
    101e:	88 e0       	ldi	r24, 0x08	; 8
    1020:	c8 16       	cp	r12, r24
    1022:	d1 04       	cpc	r13, r1
    1024:	40 f3       	brcs	.-48     	; 0xff6 <ssd1306ClrScr+0x18>
    1026:	df 91       	pop	r29
    1028:	cf 91       	pop	r28
    102a:	1f 91       	pop	r17
    102c:	0f 91       	pop	r16
    102e:	ff 90       	pop	r15
    1030:	df 90       	pop	r13
    1032:	cf 90       	pop	r12
    1034:	08 95       	ret

00001036 <twiMasterInit>:
    1036:	fc 01       	movw	r30, r24
    1038:	65 83       	std	Z+5, r22	; 0x05
    103a:	82 81       	ldd	r24, Z+2	; 0x02
    103c:	81 60       	ori	r24, 0x01	; 1
    103e:	82 83       	std	Z+2, r24	; 0x02
    1040:	81 81       	ldd	r24, Z+1	; 0x01
    1042:	88 60       	ori	r24, 0x08	; 8
    1044:	81 83       	std	Z+1, r24	; 0x01
    1046:	81 81       	ldd	r24, Z+1	; 0x01
    1048:	80 6c       	ori	r24, 0xC0	; 192
    104a:	81 83       	std	Z+1, r24	; 0x01
    104c:	84 81       	ldd	r24, Z+4	; 0x04
    104e:	81 60       	ori	r24, 0x01	; 1
    1050:	84 83       	std	Z+4, r24	; 0x04
    1052:	08 95       	ret

00001054 <twiSendAddress>:
    1054:	fc 01       	movw	r30, r24
    1056:	66 83       	std	Z+6, r22	; 0x06
    1058:	94 81       	ldd	r25, Z+4	; 0x04
    105a:	95 ff       	sbrs	r25, 5
    105c:	fd cf       	rjmp	.-6      	; 0x1058 <twiSendAddress+0x4>
    105e:	08 95       	ret

00001060 <twiSendData>:
    1060:	fc 01       	movw	r30, r24
    1062:	67 83       	std	Z+7, r22	; 0x07
    1064:	94 81       	ldd	r25, Z+4	; 0x04
    1066:	95 ff       	sbrs	r25, 5
    1068:	fd cf       	rjmp	.-6      	; 0x1064 <twiSendData+0x4>
    106a:	08 95       	ret

0000106c <twiStop>:
    106c:	fc 01       	movw	r30, r24
    106e:	93 81       	ldd	r25, Z+3	; 0x03
    1070:	93 60       	ori	r25, 0x03	; 3
    1072:	93 83       	std	Z+3, r25	; 0x03
    1074:	08 95       	ret

00001076 <main>:

volatile uint8_t z = 0;

int main(void)
{
	ClkSys32MHz();
    1076:	0e 94 6b 08 	call	0x10d6	; 0x10d6 <ClkSys32MHz>
	
	twiMasterInit(lcdBus, TWI_BAUDRATE);
    107a:	63 e2       	ldi	r22, 0x23	; 35
    107c:	80 91 1b 20 	lds	r24, 0x201B	; 0x80201b <lcdBus>
    1080:	90 91 1c 20 	lds	r25, 0x201C	; 0x80201c <lcdBus+0x1>
    1084:	0e 94 1b 08 	call	0x1036	; 0x1036 <twiMasterInit>
	ssd1306Init(lcdBus);
    1088:	80 91 1b 20 	lds	r24, 0x201B	; 0x80201b <lcdBus>
    108c:	90 91 1c 20 	lds	r25, 0x201C	; 0x80201c <lcdBus+0x1>
    1090:	0e 94 8c 07 	call	0xf18	; 0xf18 <ssd1306Init>
	ssd1306ClrScr(lcdBus, 0xAA);
    1094:	6a ea       	ldi	r22, 0xAA	; 170
    1096:	80 91 1b 20 	lds	r24, 0x201B	; 0x80201b <lcdBus>
    109a:	90 91 1c 20 	lds	r25, 0x201C	; 0x80201c <lcdBus+0x1>
    109e:	0e 94 ef 07 	call	0xfde	; 0xfde <ssd1306ClrScr>
	
	Job = Data_CreateList();
    10a2:	0e 94 5a 01 	call	0x2b4	; 0x2b4 <Data_CreateList>
    10a6:	80 93 70 20 	sts	0x2070, r24	; 0x802070 <Job>
    10aa:	90 93 71 20 	sts	0x2071, r25	; 0x802071 <Job+0x1>
	
	Bluetooth = HC05_Init(Bluetooth);
    10ae:	80 91 66 20 	lds	r24, 0x2066	; 0x802066 <Bluetooth>
    10b2:	90 91 67 20 	lds	r25, 0x2067	; 0x802067 <Bluetooth+0x1>
    10b6:	0e 94 83 04 	call	0x906	; 0x906 <HC05_Init>
    10ba:	80 93 66 20 	sts	0x2066, r24	; 0x802066 <Bluetooth>
    10be:	90 93 67 20 	sts	0x2067, r25	; 0x802067 <Bluetooth+0x1>
	
	sei();
    10c2:	78 94       	sei
    while (1) 
    {
		Bluetooth->Read();						/* cykliczne odbieranie ramek danych z telefonu	*/
    10c4:	e0 91 66 20 	lds	r30, 0x2066	; 0x802066 <Bluetooth>
    10c8:	f0 91 67 20 	lds	r31, 0x2067	; 0x802067 <Bluetooth+0x1>
    10cc:	04 80       	ldd	r0, Z+4	; 0x04
    10ce:	f5 81       	ldd	r31, Z+5	; 0x05
    10d0:	e0 2d       	mov	r30, r0
    10d2:	19 95       	eicall
    10d4:	f7 cf       	rjmp	.-18     	; 0x10c4 <main+0x4e>

000010d6 <ClkSys32MHz>:
    10d6:	82 e0       	ldi	r24, 0x02	; 2
    10d8:	80 93 50 00 	sts	0x0050, r24	; 0x800050 <__TEXT_REGION_LENGTH__+0x7de050>
    10dc:	80 91 51 00 	lds	r24, 0x0051	; 0x800051 <__TEXT_REGION_LENGTH__+0x7de051>
    10e0:	81 ff       	sbrs	r24, 1
    10e2:	fc cf       	rjmp	.-8      	; 0x10dc <ClkSys32MHz+0x6>
    10e4:	88 ed       	ldi	r24, 0xD8	; 216
    10e6:	84 bf       	out	0x34, r24	; 52
    10e8:	81 e0       	ldi	r24, 0x01	; 1
    10ea:	80 93 40 00 	sts	0x0040, r24	; 0x800040 <__TEXT_REGION_LENGTH__+0x7de040>
    10ee:	08 95       	ret

000010f0 <malloc>:
    10f0:	0f 93       	push	r16
    10f2:	1f 93       	push	r17
    10f4:	cf 93       	push	r28
    10f6:	df 93       	push	r29
    10f8:	82 30       	cpi	r24, 0x02	; 2
    10fa:	91 05       	cpc	r25, r1
    10fc:	10 f4       	brcc	.+4      	; 0x1102 <malloc+0x12>
    10fe:	82 e0       	ldi	r24, 0x02	; 2
    1100:	90 e0       	ldi	r25, 0x00	; 0
    1102:	e0 91 88 20 	lds	r30, 0x2088	; 0x802088 <__flp>
    1106:	f0 91 89 20 	lds	r31, 0x2089	; 0x802089 <__flp+0x1>
    110a:	20 e0       	ldi	r18, 0x00	; 0
    110c:	30 e0       	ldi	r19, 0x00	; 0
    110e:	a0 e0       	ldi	r26, 0x00	; 0
    1110:	b0 e0       	ldi	r27, 0x00	; 0
    1112:	30 97       	sbiw	r30, 0x00	; 0
    1114:	19 f1       	breq	.+70     	; 0x115c <malloc+0x6c>
    1116:	40 81       	ld	r20, Z
    1118:	51 81       	ldd	r21, Z+1	; 0x01
    111a:	02 81       	ldd	r16, Z+2	; 0x02
    111c:	13 81       	ldd	r17, Z+3	; 0x03
    111e:	48 17       	cp	r20, r24
    1120:	59 07       	cpc	r21, r25
    1122:	c8 f0       	brcs	.+50     	; 0x1156 <malloc+0x66>
    1124:	84 17       	cp	r24, r20
    1126:	95 07       	cpc	r25, r21
    1128:	69 f4       	brne	.+26     	; 0x1144 <malloc+0x54>
    112a:	10 97       	sbiw	r26, 0x00	; 0
    112c:	31 f0       	breq	.+12     	; 0x113a <malloc+0x4a>
    112e:	12 96       	adiw	r26, 0x02	; 2
    1130:	0c 93       	st	X, r16
    1132:	12 97       	sbiw	r26, 0x02	; 2
    1134:	13 96       	adiw	r26, 0x03	; 3
    1136:	1c 93       	st	X, r17
    1138:	27 c0       	rjmp	.+78     	; 0x1188 <malloc+0x98>
    113a:	00 93 88 20 	sts	0x2088, r16	; 0x802088 <__flp>
    113e:	10 93 89 20 	sts	0x2089, r17	; 0x802089 <__flp+0x1>
    1142:	22 c0       	rjmp	.+68     	; 0x1188 <malloc+0x98>
    1144:	21 15       	cp	r18, r1
    1146:	31 05       	cpc	r19, r1
    1148:	19 f0       	breq	.+6      	; 0x1150 <malloc+0x60>
    114a:	42 17       	cp	r20, r18
    114c:	53 07       	cpc	r21, r19
    114e:	18 f4       	brcc	.+6      	; 0x1156 <malloc+0x66>
    1150:	9a 01       	movw	r18, r20
    1152:	bd 01       	movw	r22, r26
    1154:	ef 01       	movw	r28, r30
    1156:	df 01       	movw	r26, r30
    1158:	f8 01       	movw	r30, r16
    115a:	db cf       	rjmp	.-74     	; 0x1112 <malloc+0x22>
    115c:	21 15       	cp	r18, r1
    115e:	31 05       	cpc	r19, r1
    1160:	f9 f0       	breq	.+62     	; 0x11a0 <malloc+0xb0>
    1162:	28 1b       	sub	r18, r24
    1164:	39 0b       	sbc	r19, r25
    1166:	24 30       	cpi	r18, 0x04	; 4
    1168:	31 05       	cpc	r19, r1
    116a:	80 f4       	brcc	.+32     	; 0x118c <malloc+0x9c>
    116c:	8a 81       	ldd	r24, Y+2	; 0x02
    116e:	9b 81       	ldd	r25, Y+3	; 0x03
    1170:	61 15       	cp	r22, r1
    1172:	71 05       	cpc	r23, r1
    1174:	21 f0       	breq	.+8      	; 0x117e <malloc+0x8e>
    1176:	fb 01       	movw	r30, r22
    1178:	82 83       	std	Z+2, r24	; 0x02
    117a:	93 83       	std	Z+3, r25	; 0x03
    117c:	04 c0       	rjmp	.+8      	; 0x1186 <malloc+0x96>
    117e:	80 93 88 20 	sts	0x2088, r24	; 0x802088 <__flp>
    1182:	90 93 89 20 	sts	0x2089, r25	; 0x802089 <__flp+0x1>
    1186:	fe 01       	movw	r30, r28
    1188:	32 96       	adiw	r30, 0x02	; 2
    118a:	44 c0       	rjmp	.+136    	; 0x1214 <malloc+0x124>
    118c:	fe 01       	movw	r30, r28
    118e:	e2 0f       	add	r30, r18
    1190:	f3 1f       	adc	r31, r19
    1192:	81 93       	st	Z+, r24
    1194:	91 93       	st	Z+, r25
    1196:	22 50       	subi	r18, 0x02	; 2
    1198:	31 09       	sbc	r19, r1
    119a:	28 83       	st	Y, r18
    119c:	39 83       	std	Y+1, r19	; 0x01
    119e:	3a c0       	rjmp	.+116    	; 0x1214 <malloc+0x124>
    11a0:	20 91 86 20 	lds	r18, 0x2086	; 0x802086 <__brkval>
    11a4:	30 91 87 20 	lds	r19, 0x2087	; 0x802087 <__brkval+0x1>
    11a8:	23 2b       	or	r18, r19
    11aa:	41 f4       	brne	.+16     	; 0x11bc <malloc+0xcc>
    11ac:	20 91 02 20 	lds	r18, 0x2002	; 0x802002 <__malloc_heap_start>
    11b0:	30 91 03 20 	lds	r19, 0x2003	; 0x802003 <__malloc_heap_start+0x1>
    11b4:	20 93 86 20 	sts	0x2086, r18	; 0x802086 <__brkval>
    11b8:	30 93 87 20 	sts	0x2087, r19	; 0x802087 <__brkval+0x1>
    11bc:	20 91 00 20 	lds	r18, 0x2000	; 0x802000 <__DATA_REGION_ORIGIN__>
    11c0:	30 91 01 20 	lds	r19, 0x2001	; 0x802001 <__DATA_REGION_ORIGIN__+0x1>
    11c4:	21 15       	cp	r18, r1
    11c6:	31 05       	cpc	r19, r1
    11c8:	41 f4       	brne	.+16     	; 0x11da <malloc+0xea>
    11ca:	2d b7       	in	r18, 0x3d	; 61
    11cc:	3e b7       	in	r19, 0x3e	; 62
    11ce:	40 91 04 20 	lds	r20, 0x2004	; 0x802004 <__malloc_margin>
    11d2:	50 91 05 20 	lds	r21, 0x2005	; 0x802005 <__malloc_margin+0x1>
    11d6:	24 1b       	sub	r18, r20
    11d8:	35 0b       	sbc	r19, r21
    11da:	e0 91 86 20 	lds	r30, 0x2086	; 0x802086 <__brkval>
    11de:	f0 91 87 20 	lds	r31, 0x2087	; 0x802087 <__brkval+0x1>
    11e2:	e2 17       	cp	r30, r18
    11e4:	f3 07       	cpc	r31, r19
    11e6:	a0 f4       	brcc	.+40     	; 0x1210 <malloc+0x120>
    11e8:	2e 1b       	sub	r18, r30
    11ea:	3f 0b       	sbc	r19, r31
    11ec:	28 17       	cp	r18, r24
    11ee:	39 07       	cpc	r19, r25
    11f0:	78 f0       	brcs	.+30     	; 0x1210 <malloc+0x120>
    11f2:	ac 01       	movw	r20, r24
    11f4:	4e 5f       	subi	r20, 0xFE	; 254
    11f6:	5f 4f       	sbci	r21, 0xFF	; 255
    11f8:	24 17       	cp	r18, r20
    11fa:	35 07       	cpc	r19, r21
    11fc:	48 f0       	brcs	.+18     	; 0x1210 <malloc+0x120>
    11fe:	4e 0f       	add	r20, r30
    1200:	5f 1f       	adc	r21, r31
    1202:	40 93 86 20 	sts	0x2086, r20	; 0x802086 <__brkval>
    1206:	50 93 87 20 	sts	0x2087, r21	; 0x802087 <__brkval+0x1>
    120a:	81 93       	st	Z+, r24
    120c:	91 93       	st	Z+, r25
    120e:	02 c0       	rjmp	.+4      	; 0x1214 <malloc+0x124>
    1210:	e0 e0       	ldi	r30, 0x00	; 0
    1212:	f0 e0       	ldi	r31, 0x00	; 0
    1214:	cf 01       	movw	r24, r30
    1216:	df 91       	pop	r29
    1218:	cf 91       	pop	r28
    121a:	1f 91       	pop	r17
    121c:	0f 91       	pop	r16
    121e:	08 95       	ret

00001220 <free>:
    1220:	cf 93       	push	r28
    1222:	df 93       	push	r29
    1224:	00 97       	sbiw	r24, 0x00	; 0
    1226:	09 f4       	brne	.+2      	; 0x122a <free+0xa>
    1228:	81 c0       	rjmp	.+258    	; 0x132c <free+0x10c>
    122a:	fc 01       	movw	r30, r24
    122c:	32 97       	sbiw	r30, 0x02	; 2
    122e:	12 82       	std	Z+2, r1	; 0x02
    1230:	13 82       	std	Z+3, r1	; 0x03
    1232:	a0 91 88 20 	lds	r26, 0x2088	; 0x802088 <__flp>
    1236:	b0 91 89 20 	lds	r27, 0x2089	; 0x802089 <__flp+0x1>
    123a:	10 97       	sbiw	r26, 0x00	; 0
    123c:	81 f4       	brne	.+32     	; 0x125e <free+0x3e>
    123e:	20 81       	ld	r18, Z
    1240:	31 81       	ldd	r19, Z+1	; 0x01
    1242:	82 0f       	add	r24, r18
    1244:	93 1f       	adc	r25, r19
    1246:	20 91 86 20 	lds	r18, 0x2086	; 0x802086 <__brkval>
    124a:	30 91 87 20 	lds	r19, 0x2087	; 0x802087 <__brkval+0x1>
    124e:	28 17       	cp	r18, r24
    1250:	39 07       	cpc	r19, r25
    1252:	51 f5       	brne	.+84     	; 0x12a8 <free+0x88>
    1254:	e0 93 86 20 	sts	0x2086, r30	; 0x802086 <__brkval>
    1258:	f0 93 87 20 	sts	0x2087, r31	; 0x802087 <__brkval+0x1>
    125c:	67 c0       	rjmp	.+206    	; 0x132c <free+0x10c>
    125e:	ed 01       	movw	r28, r26
    1260:	20 e0       	ldi	r18, 0x00	; 0
    1262:	30 e0       	ldi	r19, 0x00	; 0
    1264:	ce 17       	cp	r28, r30
    1266:	df 07       	cpc	r29, r31
    1268:	40 f4       	brcc	.+16     	; 0x127a <free+0x5a>
    126a:	4a 81       	ldd	r20, Y+2	; 0x02
    126c:	5b 81       	ldd	r21, Y+3	; 0x03
    126e:	9e 01       	movw	r18, r28
    1270:	41 15       	cp	r20, r1
    1272:	51 05       	cpc	r21, r1
    1274:	f1 f0       	breq	.+60     	; 0x12b2 <free+0x92>
    1276:	ea 01       	movw	r28, r20
    1278:	f5 cf       	rjmp	.-22     	; 0x1264 <free+0x44>
    127a:	c2 83       	std	Z+2, r28	; 0x02
    127c:	d3 83       	std	Z+3, r29	; 0x03
    127e:	40 81       	ld	r20, Z
    1280:	51 81       	ldd	r21, Z+1	; 0x01
    1282:	84 0f       	add	r24, r20
    1284:	95 1f       	adc	r25, r21
    1286:	c8 17       	cp	r28, r24
    1288:	d9 07       	cpc	r29, r25
    128a:	59 f4       	brne	.+22     	; 0x12a2 <free+0x82>
    128c:	88 81       	ld	r24, Y
    128e:	99 81       	ldd	r25, Y+1	; 0x01
    1290:	84 0f       	add	r24, r20
    1292:	95 1f       	adc	r25, r21
    1294:	02 96       	adiw	r24, 0x02	; 2
    1296:	80 83       	st	Z, r24
    1298:	91 83       	std	Z+1, r25	; 0x01
    129a:	8a 81       	ldd	r24, Y+2	; 0x02
    129c:	9b 81       	ldd	r25, Y+3	; 0x03
    129e:	82 83       	std	Z+2, r24	; 0x02
    12a0:	93 83       	std	Z+3, r25	; 0x03
    12a2:	21 15       	cp	r18, r1
    12a4:	31 05       	cpc	r19, r1
    12a6:	29 f4       	brne	.+10     	; 0x12b2 <free+0x92>
    12a8:	e0 93 88 20 	sts	0x2088, r30	; 0x802088 <__flp>
    12ac:	f0 93 89 20 	sts	0x2089, r31	; 0x802089 <__flp+0x1>
    12b0:	3d c0       	rjmp	.+122    	; 0x132c <free+0x10c>
    12b2:	e9 01       	movw	r28, r18
    12b4:	ea 83       	std	Y+2, r30	; 0x02
    12b6:	fb 83       	std	Y+3, r31	; 0x03
    12b8:	49 91       	ld	r20, Y+
    12ba:	59 91       	ld	r21, Y+
    12bc:	c4 0f       	add	r28, r20
    12be:	d5 1f       	adc	r29, r21
    12c0:	ec 17       	cp	r30, r28
    12c2:	fd 07       	cpc	r31, r29
    12c4:	61 f4       	brne	.+24     	; 0x12de <free+0xbe>
    12c6:	80 81       	ld	r24, Z
    12c8:	91 81       	ldd	r25, Z+1	; 0x01
    12ca:	84 0f       	add	r24, r20
    12cc:	95 1f       	adc	r25, r21
    12ce:	02 96       	adiw	r24, 0x02	; 2
    12d0:	e9 01       	movw	r28, r18
    12d2:	88 83       	st	Y, r24
    12d4:	99 83       	std	Y+1, r25	; 0x01
    12d6:	82 81       	ldd	r24, Z+2	; 0x02
    12d8:	93 81       	ldd	r25, Z+3	; 0x03
    12da:	8a 83       	std	Y+2, r24	; 0x02
    12dc:	9b 83       	std	Y+3, r25	; 0x03
    12de:	e0 e0       	ldi	r30, 0x00	; 0
    12e0:	f0 e0       	ldi	r31, 0x00	; 0
    12e2:	12 96       	adiw	r26, 0x02	; 2
    12e4:	8d 91       	ld	r24, X+
    12e6:	9c 91       	ld	r25, X
    12e8:	13 97       	sbiw	r26, 0x03	; 3
    12ea:	00 97       	sbiw	r24, 0x00	; 0
    12ec:	19 f0       	breq	.+6      	; 0x12f4 <free+0xd4>
    12ee:	fd 01       	movw	r30, r26
    12f0:	dc 01       	movw	r26, r24
    12f2:	f7 cf       	rjmp	.-18     	; 0x12e2 <free+0xc2>
    12f4:	8d 91       	ld	r24, X+
    12f6:	9c 91       	ld	r25, X
    12f8:	11 97       	sbiw	r26, 0x01	; 1
    12fa:	9d 01       	movw	r18, r26
    12fc:	2e 5f       	subi	r18, 0xFE	; 254
    12fe:	3f 4f       	sbci	r19, 0xFF	; 255
    1300:	82 0f       	add	r24, r18
    1302:	93 1f       	adc	r25, r19
    1304:	20 91 86 20 	lds	r18, 0x2086	; 0x802086 <__brkval>
    1308:	30 91 87 20 	lds	r19, 0x2087	; 0x802087 <__brkval+0x1>
    130c:	28 17       	cp	r18, r24
    130e:	39 07       	cpc	r19, r25
    1310:	69 f4       	brne	.+26     	; 0x132c <free+0x10c>
    1312:	30 97       	sbiw	r30, 0x00	; 0
    1314:	29 f4       	brne	.+10     	; 0x1320 <free+0x100>
    1316:	10 92 88 20 	sts	0x2088, r1	; 0x802088 <__flp>
    131a:	10 92 89 20 	sts	0x2089, r1	; 0x802089 <__flp+0x1>
    131e:	02 c0       	rjmp	.+4      	; 0x1324 <free+0x104>
    1320:	12 82       	std	Z+2, r1	; 0x02
    1322:	13 82       	std	Z+3, r1	; 0x03
    1324:	a0 93 86 20 	sts	0x2086, r26	; 0x802086 <__brkval>
    1328:	b0 93 87 20 	sts	0x2087, r27	; 0x802087 <__brkval+0x1>
    132c:	df 91       	pop	r29
    132e:	cf 91       	pop	r28
    1330:	08 95       	ret

00001332 <atoi>:
    1332:	fc 01       	movw	r30, r24
    1334:	88 27       	eor	r24, r24
    1336:	99 27       	eor	r25, r25
    1338:	e8 94       	clt
    133a:	21 91       	ld	r18, Z+
    133c:	20 32       	cpi	r18, 0x20	; 32
    133e:	e9 f3       	breq	.-6      	; 0x133a <atoi+0x8>
    1340:	29 30       	cpi	r18, 0x09	; 9
    1342:	10 f0       	brcs	.+4      	; 0x1348 <atoi+0x16>
    1344:	2e 30       	cpi	r18, 0x0E	; 14
    1346:	c8 f3       	brcs	.-14     	; 0x133a <atoi+0x8>
    1348:	2b 32       	cpi	r18, 0x2B	; 43
    134a:	41 f0       	breq	.+16     	; 0x135c <atoi+0x2a>
    134c:	2d 32       	cpi	r18, 0x2D	; 45
    134e:	39 f4       	brne	.+14     	; 0x135e <atoi+0x2c>
    1350:	68 94       	set
    1352:	04 c0       	rjmp	.+8      	; 0x135c <atoi+0x2a>
    1354:	0e 94 cc 09 	call	0x1398	; 0x1398 <__mulhi_const_10>
    1358:	82 0f       	add	r24, r18
    135a:	91 1d       	adc	r25, r1
    135c:	21 91       	ld	r18, Z+
    135e:	20 53       	subi	r18, 0x30	; 48
    1360:	2a 30       	cpi	r18, 0x0A	; 10
    1362:	c0 f3       	brcs	.-16     	; 0x1354 <atoi+0x22>
    1364:	1e f4       	brtc	.+6      	; 0x136c <atoi+0x3a>
    1366:	90 95       	com	r25
    1368:	81 95       	neg	r24
    136a:	9f 4f       	sbci	r25, 0xFF	; 255
    136c:	08 95       	ret

0000136e <strcpy>:
    136e:	fb 01       	movw	r30, r22
    1370:	dc 01       	movw	r26, r24
    1372:	01 90       	ld	r0, Z+
    1374:	0d 92       	st	X+, r0
    1376:	00 20       	and	r0, r0
    1378:	e1 f7       	brne	.-8      	; 0x1372 <strcpy+0x4>
    137a:	08 95       	ret

0000137c <strncmp>:
    137c:	fb 01       	movw	r30, r22
    137e:	dc 01       	movw	r26, r24
    1380:	41 50       	subi	r20, 0x01	; 1
    1382:	50 40       	sbci	r21, 0x00	; 0
    1384:	30 f0       	brcs	.+12     	; 0x1392 <strncmp+0x16>
    1386:	8d 91       	ld	r24, X+
    1388:	01 90       	ld	r0, Z+
    138a:	80 19       	sub	r24, r0
    138c:	19 f4       	brne	.+6      	; 0x1394 <strncmp+0x18>
    138e:	00 20       	and	r0, r0
    1390:	b9 f7       	brne	.-18     	; 0x1380 <strncmp+0x4>
    1392:	88 1b       	sub	r24, r24
    1394:	99 0b       	sbc	r25, r25
    1396:	08 95       	ret

00001398 <__mulhi_const_10>:
    1398:	7a e0       	ldi	r23, 0x0A	; 10
    139a:	97 9f       	mul	r25, r23
    139c:	90 2d       	mov	r25, r0
    139e:	87 9f       	mul	r24, r23
    13a0:	80 2d       	mov	r24, r0
    13a2:	91 0d       	add	r25, r1
    13a4:	11 24       	eor	r1, r1
    13a6:	08 95       	ret

000013a8 <_exit>:
    13a8:	f8 94       	cli

000013aa <__stop_program>:
    13aa:	ff cf       	rjmp	.-2      	; 0x13aa <__stop_program>
